(lp0
(lp1
I0
aI0
aI7500
aa(lp2
I0
aI0
aI7500
aa(lp3
I0
aI0
aI7500
aa(lp4
I0
aI0
aI7500
aa(lp5
I0
aI0
aI7500
aa(lp6
I0
aI0
aI7500
aa(lp7
I1
aI0
aI7500
aa(lp8
I1
aI0
aI7500
aa(lp9
I1
aI0
aI7500
aa(lp10
I1
aI0
aI7500
aa(lp11
I2
aI472
aI7500
aa(lp12
I2
aI472
aI7500
aa(lp13
I2
aI472
aI7500
aa(lp14
I2
aI472
aI7500
aa(lp15
I3
aI472
aI7500
aa(lp16
I3
aI472
aI7500
aa(lp17
I3
aI472
aI7500
aa(lp18
I3
aI472
aI7500
aa(lp19
I3
aI472
aI7500
aa(lp20
I3
aI472
aI7500
aa(lp21
I4
aI472
aI7500
aa(lp22
I4
aI472
aI7500
aa(lp23
I4
aI472
aI7500
aa(lp24
I4
aI472
aI7500
aa(lp25
I5
aI472
aI7500
aa(lp26
I5
aI472
aI7500
aa(lp27
I5
aI472
aI7500
aa(lp28
I5
aI472
aI7500
aa(lp29
I6
aI472
aI7500
aa(lp30
I6
aI472
aI7500
aa(lp31
I6
aI472
aI7500
aa(lp32
I6
aI472
aI7500
aa(lp33
I6
aI472
aI7500
aa(lp34
I6
aI472
aI7500
aa(lp35
I7
aI472
aI7500
aa(lp36
I7
aI472
aI7500
aa(lp37
I7
aI472
aI7500
aa(lp38
I7
aI472
aI7500
aa(lp39
I7
aI472
aI7500
aa(lp40
I7
aI472
aI7500
aa(lp41
I8
aI472
aI7500
aa(lp42
I8
aI472
aI7500
aa(lp43
I8
aI472
aI7500
aa(lp44
I8
aI472
aI7500
aa(lp45
I8
aI472
aI7500
aa(lp46
I8
aI472
aI7500
aa(lp47
I9
aI472
aI7500
aa(lp48
I9
aI472
aI7500
aa(lp49
I9
aI472
aI7500
aa(lp50
I9
aI472
aI7500
aa(lp51
I9
aI472
aI7500
aa(lp52
I9
aI472
aI7500
aa(lp53
I10
aI472
aI7500
aa(lp54
I10
aI472
aI7500
aa(lp55
I10
aI472
aI7500
aa(lp56
I10
aI472
aI7500
aa(lp57
I10
aI472
aI7500
aa(lp58
I10
aI472
aI7500
aa(lp59
I10
aI472
aI7500
aa(lp60
I11
aI472
aI7500
aa(lp61
I11
aI472
aI7500
aa(lp62
I11
aI472
aI7500
aa(lp63
I11
aI472
aI7500
aa(lp64
I11
aI472
aI7500
aa(lp65
I12
aI472
aI7500
aa(lp66
I12
aI472
aI7500
aa(lp67
I12
aI472
aI7500
aa(lp68
I12
aI472
aI7500
aa(lp69
I12
aI472
aI7500
aa(lp70
I13
aI472
aI7500
aa(lp71
I13
aI472
aI7500
aa(lp72
I13
aI472
aI7500
aa(lp73
I13
aI472
aI7500
aa(lp74
I13
aI472
aI7500
aa(lp75
I14
aI472
aI7500
aa(lp76
I14
aI472
aI7500
aa(lp77
I14
aI472
aI7500
aa(lp78
I14
aI472
aI7500
aa(lp79
I14
aI472
aI7500
aa(lp80
I14
aI472
aI7500
aa(lp81
I14
aI472
aI7500
aa(lp82
I14
aI472
aI7500
aa(lp83
I15
aI472
aI7500
aa(lp84
I15
aI472
aI7500
aa(lp85
I15
aI472
aI7500
aa(lp86
I15
aI472
aI7500
aa(lp87
I15
aI472
aI7500
aa(lp88
I16
aI496
aI7500
aa(lp89
I16
aI496
aI7500
aa(lp90
I16
aI496
aI7500
aa(lp91
I16
aI496
aI7500
aa(lp92
I16
aI496
aI7500
aa(lp93
I19
aI497
aI7500
aa(lp94
I19
aI497
aI7500
aa(lp95
I19
aI497
aI7500
aa(lp96
I19
aI497
aI7500
aa(lp97
I19
aI497
aI7500
aa(lp98
I20
aI497
aI7500
aa(lp99
I20
aI497
aI7500
aa(lp100
I20
aI497
aI7500
aa(lp101
I20
aI497
aI7500
aa(lp102
I20
aI497
aI7500
aa(lp103
I20
aI497
aI7500
aa(lp104
I21
aI497
aI7500
aa(lp105
I21
aI497
aI7500
aa(lp106
I21
aI497
aI7500
aa(lp107
I21
aI497
aI7500
aa(lp108
I21
aI497
aI7500
aa(lp109
I22
aI497
aI7500
aa(lp110
I22
aI497
aI7500
aa(lp111
I22
aI497
aI7500
aa(lp112
I22
aI497
aI7500
aa(lp113
I22
aI497
aI7500
aa(lp114
I22
aI497
aI7500
aa(lp115
I23
aI497
aI7500
aa(lp116
I23
aI497
aI7500
aa(lp117
I23
aI497
aI7500
aa(lp118
I23
aI497
aI7500
aa(lp119
I23
aI497
aI7500
aa(lp120
I23
aI497
aI7500
aa(lp121
I23
aI497
aI7500
aa(lp122
I25
aI510
aI7500
aa(lp123
I25
aI510
aI7500
aa(lp124
I25
aI510
aI7500
aa(lp125
I26
aI510
aI7500
aa(lp126
I26
aI510
aI7500
aa(lp127
I28
aI517
aI7500
aa(lp128
I28
aI517
aI7500
aa(lp129
I28
aI517
aI7500
aa(lp130
I28
aI517
aI7500
aa(lp131
I28
aI517
aI7500
aa(lp132
I29
aI529
aI7500
aa(lp133
I30
aI543
aI7500
aa(lp134
I33
aI566
aI7500
aa(lp135
I35
aI610
aI7500
aa(lp136
I38
aI663
aI7500
aa(lp137
I38
aI671
aI7500
aa(lp138
I41
aI763
aI7500
aa(lp139
I43
aI917
aI7500
aa(lp140
I45
aI955
aI7500
aa(lp141
I47
aI973
aI7500
aa(lp142
I49
aI991
aI7500
aa(lp143
I49
aI991
aI7500
aa(lp144
I49
aI991
aI7500
aa(lp145
I49
aI991
aI7500
aa(lp146
I49
aI991
aI7500
aa(lp147
I49
aI991
aI7500
aa(lp148
I49
aI991
aI7500
aa(lp149
I50
aI991
aI7500
aa(lp150
I50
aI991
aI7500
aa(lp151
I50
aI991
aI7500
aa(lp152
I50
aI991
aI7500
aa(lp153
I52
aI1017
aI7500
aa(lp154
I52
aI1017
aI7500
aa(lp155
I52
aI1017
aI7500
aa(lp156
I52
aI1017
aI7500
aa(lp157
I52
aI1017
aI7500
aa(lp158
I52
aI1017
aI7500
aa(lp159
I53
aI1017
aI7500
aa(lp160
I53
aI1017
aI7500
aa(lp161
I53
aI1025
aI7500
aa(lp162
I55
aI1062
aI7500
aa(lp163
I55
aI1062
aI7500
aa(lp164
I55
aI1062
aI7500
aa(lp165
I55
aI1062
aI7500
aa(lp166
I55
aI1062
aI7500
aa(lp167
I56
aI1062
aI7500
aa(lp168
I57
aI1064
aI7500
aa(lp169
I58
aI1064
aI7500
aa(lp170
I58
aI1064
aI7500
aa(lp171
I58
aI1064
aI7500
aa(lp172
I58
aI1064
aI7500
aa(lp173
I58
aI1064
aI7500
aa(lp174
I58
aI1064
aI7500
aa(lp175
I59
aI1064
aI7500
aa(lp176
I59
aI1064
aI7500
aa(lp177
I59
aI1064
aI7500
aa(lp178
I59
aI1064
aI7500
aa(lp179
I59
aI1064
aI7500
aa(lp180
I59
aI1064
aI7500
aa(lp181
I60
aI1064
aI7500
aa(lp182
I60
aI1064
aI7500
aa(lp183
I60
aI1064
aI7500
aa(lp184
I60
aI1064
aI7500
aa(lp185
I60
aI1064
aI7500
aa(lp186
I60
aI1064
aI7500
aa(lp187
I61
aI1064
aI7500
aa(lp188
I61
aI1064
aI7500
aa(lp189
I61
aI1064
aI7500
aa(lp190
I61
aI1064
aI7500
aa(lp191
I61
aI1064
aI7500
aa(lp192
I62
aI1064
aI7500
aa(lp193
I62
aI1064
aI7500
aa(lp194
I62
aI1064
aI7500
aa(lp195
I62
aI1064
aI7500
aa(lp196
I62
aI1064
aI7500
aa(lp197
I62
aI1064
aI7500
aa(lp198
I63
aI1064
aI7500
aa(lp199
I63
aI1064
aI7500
aa(lp200
I63
aI1064
aI7500
aa(lp201
I63
aI1064
aI7500
aa(lp202
I63
aI1064
aI7500
aa(lp203
I63
aI1064
aI7500
aa(lp204
I63
aI1064
aI7500
aa(lp205
I65
aI1068
aI7500
aa(lp206
I65
aI1068
aI7500
aa(lp207
I65
aI1068
aI7500
aa(lp208
I66
aI1068
aI7500
aa(lp209
I66
aI1068
aI7500
aa(lp210
I66
aI1068
aI7500
aa(lp211
I66
aI1068
aI7500
aa(lp212
I66
aI1068
aI7500
aa(lp213
I66
aI1068
aI7500
aa(lp214
I68
aI1069
aI7500
aa(lp215
I68
aI1069
aI7500
aa(lp216
I68
aI1069
aI7500
aa(lp217
I68
aI1069
aI7500
aa(lp218
I70
aI1081
aI7500
aa(lp219
I70
aI1081
aI7500
aa(lp220
I70
aI1081
aI7500
aa(lp221
I70
aI1081
aI7500
aa(lp222
I70
aI1081
aI7500
aa(lp223
I71
aI1081
aI7500
aa(lp224
I71
aI1081
aI7500
aa(lp225
I71
aI1081
aI7500
aa(lp226
I73
aI1092
aI7500
aa(lp227
I73
aI1092
aI7500
aa(lp228
I73
aI1092
aI7500
aa(lp229
I73
aI1092
aI7500
aa(lp230
I73
aI1092
aI7500
aa(lp231
I73
aI1092
aI7500
aa(lp232
I74
aI1092
aI7500
aa(lp233
I74
aI1092
aI7500
aa(lp234
I74
aI1092
aI7500
aa(lp235
I74
aI1095
aI7500
aa(lp236
I76
aI1107
aI7500
aa(lp237
I76
aI1107
aI7500
aa(lp238
I76
aI1107
aI7500
aa(lp239
I76
aI1107
aI7500
aa(lp240
I78
aI1122
aI7500
aa(lp241
I78
aI1122
aI7500
aa(lp242
I78
aI1122
aI7500
aa(lp243
I78
aI1122
aI7500
aa(lp244
I79
aI1122
aI7500
aa(lp245
I79
aI1122
aI7500
aa(lp246
I80
aI1124
aI7500
aa(lp247
I81
aI1124
aI7500
aa(lp248
I81
aI1124
aI7500
aa(lp249
I81
aI1124
aI7500
aa(lp250
I81
aI1124
aI7500
aa(lp251
I81
aI1124
aI7500
aa(lp252
I81
aI1124
aI7500
aa(lp253
I82
aI1124
aI7500
aa(lp254
I82
aI1124
aI7500
aa(lp255
I82
aI1124
aI7500
aa(lp256
I82
aI1124
aI7500
aa(lp257
I82
aI1124
aI7500
aa(lp258
I82
aI1124
aI7500
aa(lp259
I83
aI1124
aI7500
aa(lp260
I83
aI1124
aI7500
aa(lp261
I83
aI1124
aI7500
aa(lp262
I83
aI1124
aI7500
aa(lp263
I83
aI1124
aI7500
aa(lp264
I84
aI1124
aI7500
aa(lp265
I84
aI1124
aI7500
aa(lp266
I84
aI1124
aI7500
aa(lp267
I84
aI1124
aI7500
aa(lp268
I84
aI1124
aI7500
aa(lp269
I84
aI1124
aI7500
aa(lp270
I84
aI1124
aI7500
aa(lp271
I85
aI1124
aI7500
aa(lp272
I85
aI1124
aI7500
aa(lp273
I85
aI1124
aI7500
aa(lp274
I85
aI1124
aI7500
aa(lp275
I85
aI1124
aI7500
aa(lp276
I85
aI1124
aI7500
aa(lp277
I86
aI1124
aI7500
aa(lp278
I86
aI1124
aI7500
aa(lp279
I86
aI1124
aI7500
aa(lp280
I86
aI1124
aI7500
aa(lp281
I86
aI1124
aI7500
aa(lp282
I86
aI1124
aI7500
aa(lp283
I87
aI1124
aI7500
aa(lp284
I87
aI1124
aI7500
aa(lp285
I87
aI1124
aI7500
aa(lp286
I87
aI1124
aI7500
aa(lp287
I87
aI1124
aI7500
aa(lp288
I87
aI1124
aI7500
aa(lp289
I88
aI1124
aI7500
aa(lp290
I88
aI1124
aI7500
aa(lp291
I88
aI1124
aI7500
aa(lp292
I89
aI1127
aI7500
aa(lp293
I89
aI1127
aI7500
aa(lp294
I90
aI1127
aI7500
aa(lp295
I90
aI1127
aI7500
aa(lp296
I90
aI1127
aI7500
aa(lp297
I90
aI1127
aI7500
aa(lp298
I90
aI1132
aI7500
aa(lp299
I92
aI1139
aI7500
aa(lp300
I92
aI1139
aI7500
aa(lp301
I92
aI1139
aI7500
aa(lp302
I92
aI1139
aI7500
aa(lp303
I92
aI1139
aI7500
aa(lp304
I94
aI1140
aI7500
aa(lp305
I94
aI1140
aI7500
aa(lp306
I94
aI1140
aI7500
aa(lp307
I95
aI1140
aI7500
aa(lp308
I95
aI1140
aI7500
aa(lp309
I95
aI1140
aI7500
aa(lp310
I95
aI1140
aI7500
aa(lp311
I95
aI1140
aI7500
aa(lp312
I95
aI1140
aI7500
aa(lp313
I96
aI1140
aI7500
aa(lp314
I96
aI1140
aI7500
aa(lp315
I96
aI1140
aI7500
aa(lp316
I96
aI1140
aI7500
aa(lp317
I96
aI1140
aI7500
aa(lp318
I97
aI1140
aI7500
aa(lp319
I97
aI1140
aI7500
aa(lp320
I97
aI1140
aI7500
aa(lp321
I97
aI1140
aI7500
aa(lp322
I97
aI1140
aI7500
aa(lp323
I97
aI1140
aI7500
aa(lp324
I98
aI1140
aI7500
aa(lp325
I98
aI1140
aI7500
aa(lp326
I98
aI1140
aI7500
aa(lp327
I98
aI1140
aI7500
aa(lp328
I98
aI1140
aI7500
aa(lp329
I98
aI1140
aI7500
aa(lp330
I98
aI1140
aI7500
aa(lp331
I99
aI1140
aI7500
aa(lp332
I99
aI1140
aI7500
aa(lp333
I99
aI1140
aI7500
aa(lp334
I99
aI1140
aI7500
aa(lp335
I99
aI1140
aI7500
aa(lp336
I100
aI1140
aI7500
aa(lp337
I101
aI1140
aI7500
aa(lp338
I101
aI1140
aI7500
aa(lp339
I101
aI1140
aI7500
aa(lp340
I101
aI1140
aI7500
aa(lp341
I101
aI1140
aI7500
aa(lp342
I101
aI1140
aI7500
aa(lp343
I102
aI1140
aI7500
aa(lp344
I102
aI1140
aI7500
aa(lp345
I102
aI1140
aI7500
aa(lp346
I102
aI1140
aI7500
aa(lp347
I103
aI1141
aI7500
aa(lp348
I103
aI1141
aI7500
aa(lp349
I104
aI1141
aI7500
aa(lp350
I104
aI1141
aI7500
aa(lp351
I104
aI1141
aI7500
aa(lp352
I104
aI1141
aI7500
aa(lp353
I104
aI1141
aI7500
aa(lp354
I104
aI1141
aI7500
aa(lp355
I104
aI1141
aI7500
aa(lp356
I105
aI1141
aI7500
aa(lp357
I105
aI1141
aI7500
aa(lp358
I105
aI1141
aI7500
aa(lp359
I105
aI1141
aI7500
aa(lp360
I105
aI1141
aI7500
aa(lp361
I106
aI1141
aI7500
aa(lp362
I106
aI1141
aI7500
aa(lp363
I106
aI1141
aI7500
aa(lp364
I106
aI1141
aI7500
aa(lp365
I106
aI1141
aI7500
aa(lp366
I106
aI1141
aI7500
aa(lp367
I106
aI1141
aI7500
aa(lp368
I107
aI1141
aI7500
aa(lp369
I107
aI1141
aI7500
aa(lp370
I107
aI1141
aI7500
aa(lp371
I107
aI1141
aI7500
aa(lp372
I107
aI1141
aI7500
aa(lp373
I108
aI1141
aI7500
aa(lp374
I108
aI1141
aI7500
aa(lp375
I108
aI1141
aI7500
aa(lp376
I108
aI1141
aI7500
aa(lp377
I108
aI1141
aI7500
aa(lp378
I108
aI1141
aI7500
aa(lp379
I109
aI1141
aI7500
aa(lp380
I109
aI1141
aI7500
aa(lp381
I109
aI1141
aI7500
aa(lp382
I109
aI1141
aI7500
aa(lp383
I109
aI1141
aI7500
aa(lp384
I109
aI1141
aI7500
aa(lp385
I110
aI1141
aI7500
aa(lp386
I110
aI1141
aI7500
aa(lp387
I110
aI1141
aI7500
aa(lp388
I110
aI1141
aI7500
aa(lp389
I110
aI1141
aI7500
aa(lp390
I111
aI1141
aI7500
aa(lp391
I111
aI1141
aI7500
aa(lp392
I111
aI1141
aI7500
aa(lp393
I111
aI1141
aI7500
aa(lp394
I111
aI1141
aI7500
aa(lp395
I111
aI1141
aI7500
aa(lp396
I112
aI1141
aI7500
aa(lp397
I112
aI1141
aI7500
aa(lp398
I112
aI1141
aI7500
aa(lp399
I112
aI1141
aI7500
aa(lp400
I112
aI1141
aI7500
aa(lp401
I112
aI1141
aI7500
aa(lp402
I112
aI1141
aI7500
aa(lp403
I113
aI1141
aI7500
aa(lp404
I113
aI1141
aI7500
aa(lp405
I113
aI1141
aI7500
aa(lp406
I113
aI1142
aI7500
aa(lp407
I114
aI1144
aI7500
aa(lp408
I115
aI1144
aI7500
aa(lp409
I115
aI1144
aI7500
aa(lp410
I115
aI1144
aI7500
aa(lp411
I115
aI1144
aI7500
aa(lp412
I115
aI1144
aI7500
aa(lp413
I117
aI1146
aI7500
aa(lp414
I117
aI1146
aI7500
aa(lp415
I118
aI1153
aI7500
aa(lp416
I119
aI1153
aI7500
aa(lp417
I119
aI1153
aI7500
aa(lp418
I119
aI1153
aI7500
aa(lp419
I119
aI1153
aI7500
aa(lp420
I119
aI1153
aI7500
aa(lp421
I119
aI1153
aI7500
aa(lp422
I119
aI1153
aI7500
aa(lp423
I120
aI1153
aI7500
aa(lp424
I120
aI1153
aI7500
aa(lp425
I122
aI1164
aI7500
aa(lp426
I122
aI1164
aI7500
aa(lp427
I122
aI1164
aI7500
aa(lp428
I122
aI1164
aI7500
aa(lp429
I122
aI1169
aI7500
aa(lp430
I124
aI1187
aI7500
aa(lp431
I124
aI1188
aI7500
aa(lp432
I126
aI1199
aI7500
aa(lp433
I126
aI1199
aI7500
aa(lp434
I126
aI1199
aI7500
aa(lp435
I126
aI1199
aI7500
aa(lp436
I127
aI1199
aI7500
aa(lp437
I127
aI1199
aI7500
aa(lp438
I127
aI1199
aI7500
aa(lp439
I127
aI1199
aI7500
aa(lp440
I127
aI1199
aI7500
aa(lp441
I127
aI1199
aI7500
aa(lp442
I128
aI1199
aI7500
aa(lp443
I128
aI1199
aI7500
aa(lp444
I128
aI1199
aI7500
aa(lp445
I128
aI1199
aI7500
aa(lp446
I128
aI1199
aI7500
aa(lp447
I128
aI1199
aI7500
aa(lp448
I128
aI1199
aI7500
aa(lp449
I129
aI1199
aI7500
aa(lp450
I129
aI1199
aI7500
aa(lp451
I129
aI1199
aI7500
aa(lp452
I129
aI1219
aI7500
aa(lp453
I131
aI1239
aI7500
aa(lp454
I132
aI1259
aI7500
aa(lp455
I133
aI1259
aI7500
aa(lp456
I133
aI1259
aI7500
aa(lp457
I133
aI1259
aI7500
aa(lp458
I133
aI1259
aI7500
aa(lp459
I133
aI1259
aI7500
aa(lp460
I133
aI1259
aI7500
aa(lp461
I134
aI1259
aI7500
aa(lp462
I134
aI1259
aI7500
aa(lp463
I134
aI1304
aI7500
aa(lp464
I135
aI1306
aI7500
aa(lp465
I135
aI1306
aI7500
aa(lp466
I136
aI1306
aI7500
aa(lp467
I137
aI1307
aI7500
aa(lp468
I137
aI1307
aI7500
aa(lp469
I138
aI1307
aI7500
aa(lp470
I138
aI1307
aI7500
aa(lp471
I138
aI1307
aI7500
aa(lp472
I138
aI1307
aI7500
aa(lp473
I138
aI1307
aI7500
aa(lp474
I138
aI1307
aI7500
aa(lp475
I139
aI1307
aI7500
aa(lp476
I139
aI1307
aI7500
aa(lp477
I139
aI1307
aI7500
aa(lp478
I139
aI1307
aI7500
aa(lp479
I139
aI1307
aI7500
aa(lp480
I139
aI1307
aI7500
aa(lp481
I140
aI1307
aI7500
aa(lp482
I140
aI1307
aI7500
aa(lp483
I140
aI1307
aI7500
aa(lp484
I140
aI1307
aI7500
aa(lp485
I140
aI1307
aI7500
aa(lp486
I141
aI1307
aI7500
aa(lp487
I141
aI1307
aI7500
aa(lp488
I141
aI1307
aI7500
aa(lp489
I141
aI1307
aI7500
aa(lp490
I141
aI1307
aI7500
aa(lp491
I142
aI1307
aI7500
aa(lp492
I142
aI1307
aI7500
aa(lp493
I142
aI1307
aI7500
aa(lp494
I142
aI1307
aI7500
aa(lp495
I142
aI1307
aI7500
aa(lp496
I142
aI1307
aI7500
aa(lp497
I142
aI1307
aI7500
aa(lp498
I143
aI1307
aI7500
aa(lp499
I143
aI1307
aI7500
aa(lp500
I143
aI1307
aI7500
aa(lp501
I143
aI1307
aI7500
aa(lp502
I143
aI1307
aI7500
aa(lp503
I143
aI1307
aI7500
aa(lp504
I144
aI1307
aI7500
aa(lp505
I144
aI1307
aI7500
aa(lp506
I145
aI1308
aI7500
aa(lp507
I145
aI1308
aI7500
aa(lp508
I145
aI1308
aI7500
aa(lp509
I145
aI1308
aI7500
aa(lp510
I146
aI1308
aI7500
aa(lp511
I146
aI1308
aI7500
aa(lp512
I146
aI1308
aI7500
aa(lp513
I146
aI1308
aI7500
aa(lp514
I146
aI1308
aI7500
aa(lp515
I146
aI1308
aI7500
aa(lp516
I147
aI1308
aI7500
aa(lp517
I148
aI1312
aI7500
aa(lp518
I148
aI1312
aI7500
aa(lp519
I148
aI1312
aI7500
aa(lp520
I148
aI1312
aI7500
aa(lp521
I149
aI1312
aI7500
aa(lp522
I149
aI1312
aI7500
aa(lp523
I149
aI1312
aI7500
aa(lp524
I149
aI1312
aI7500
aa(lp525
I150
aI1317
aI7500
aa(lp526
I151
aI1317
aI7500
aa(lp527
I151
aI1317
aI7500
aa(lp528
I153
aI1325
aI7500
aa(lp529
I153
aI1325
aI7500
aa(lp530
I153
aI1325
aI7500
aa(lp531
I153
aI1325
aI7500
aa(lp532
I153
aI1325
aI7500
aa(lp533
I153
aI1325
aI7500
aa(lp534
I154
aI1325
aI7500
aa(lp535
I154
aI1325
aI7500
aa(lp536
I154
aI1325
aI7500
aa(lp537
I156
aI1343
aI7500
aa(lp538
I156
aI1343
aI7500
aa(lp539
I157
aI1361
aI7500
aa(lp540
I158
aI1361
aI7500
aa(lp541
I158
aI1361
aI7500
aa(lp542
I158
aI1361
aI7500
aa(lp543
I158
aI1361
aI7500
aa(lp544
I158
aI1361
aI7500
aa(lp545
I160
aI1376
aI7500
aa(lp546
I160
aI1376
aI7500
aa(lp547
I160
aI1376
aI7500
aa(lp548
I160
aI1376
aI7500
aa(lp549
I160
aI1376
aI7500
aa(lp550
I160
aI1376
aI7500
aa(lp551
I161
aI1376
aI7500
aa(lp552
I161
aI1376
aI7500
aa(lp553
I161
aI1376
aI7500
aa(lp554
I161
aI1376
aI7500
aa(lp555
I163
aI1395
aI7500
aa(lp556
I163
aI1395
aI7500
aa(lp557
I163
aI1395
aI7500
aa(lp558
I163
aI1395
aI7500
aa(lp559
I163
aI1395
aI7500
aa(lp560
I164
aI1395
aI7500
aa(lp561
I164
aI1395
aI7500
aa(lp562
I164
aI1395
aI7500
aa(lp563
I164
aI1395
aI7500
aa(lp564
I164
aI1395
aI7500
aa(lp565
I164
aI1395
aI7500
aa(lp566
I165
aI1395
aI7500
aa(lp567
I165
aI1395
aI7500
aa(lp568
I165
aI1395
aI7500
aa(lp569
I165
aI1400
aI7500
aa(lp570
I167
aI1429
aI7500
aa(lp571
I167
aI1429
aI7500
aa(lp572
I167
aI1429
aI7500
aa(lp573
I167
aI1429
aI7500
aa(lp574
I168
aI1429
aI7500
aa(lp575
I168
aI1429
aI7500
aa(lp576
I168
aI1445
aI7500
aa(lp577
I169
aI1446
aI7500
aa(lp578
I169
aI1446
aI7500
aa(lp579
I169
aI1446
aI7500
aa(lp580
I171
aI1470
aI7500
aa(lp581
I173
aI1489
aI7500
aa(lp582
I173
aI1491
aI7500
aa(lp583
I175
aI1508
aI7500
aa(lp584
I177
aI1520
aI7500
aa(lp585
I177
aI1524
aI7500
aa(lp586
I179
aI1524
aI7500
aa(lp587
I179
aI1524
aI7500
aa(lp588
I179
aI1524
aI7500
aa(lp589
I179
aI1524
aI7500
aa(lp590
I179
aI1524
aI7500
aa(lp591
I179
aI1524
aI7500
aa(lp592
I180
aI1524
aI7500
aa(lp593
I180
aI1524
aI7500
aa(lp594
I180
aI1524
aI7500
aa(lp595
I182
aI1528
aI7500
aa(lp596
I182
aI1528
aI7500
aa(lp597
I182
aI1528
aI7500
aa(lp598
I182
aI1528
aI7500
aa(lp599
I182
aI1528
aI7500
aa(lp600
I182
aI1528
aI7500
aa(lp601
I183
aI1528
aI7500
aa(lp602
I183
aI1528
aI7500
aa(lp603
I183
aI1528
aI7500
aa(lp604
I183
aI1528
aI7500
aa(lp605
I183
aI1528
aI7500
aa(lp606
I184
aI1528
aI7500
aa(lp607
I184
aI1528
aI7500
aa(lp608
I184
aI1528
aI7500
aa(lp609
I184
aI1528
aI7500
aa(lp610
I184
aI1528
aI7500
aa(lp611
I184
aI1528
aI7500
aa(lp612
I185
aI1528
aI7500
aa(lp613
I185
aI1528
aI7500
aa(lp614
I185
aI1528
aI7500
aa(lp615
I185
aI1528
aI7500
aa(lp616
I185
aI1528
aI7500
aa(lp617
I186
aI1528
aI7500
aa(lp618
I186
aI1528
aI7500
aa(lp619
I186
aI1528
aI7500
aa(lp620
I186
aI1528
aI7500
aa(lp621
I186
aI1528
aI7500
aa(lp622
I186
aI1528
aI7500
aa(lp623
I187
aI1528
aI7500
aa(lp624
I187
aI1528
aI7500
aa(lp625
I187
aI1528
aI7500
aa(lp626
I187
aI1528
aI7500
aa(lp627
I187
aI1528
aI7500
aa(lp628
I188
aI1528
aI7500
aa(lp629
I188
aI1528
aI7500
aa(lp630
I188
aI1528
aI7500
aa(lp631
I188
aI1528
aI7500
aa(lp632
I188
aI1528
aI7500
aa(lp633
I188
aI1529
aI7500
aa(lp634
I190
aI1533
aI7500
aa(lp635
I190
aI1533
aI7500
aa(lp636
I190
aI1533
aI7500
aa(lp637
I190
aI1533
aI7500
aa(lp638
I190
aI1533
aI7500
aa(lp639
I191
aI1533
aI7500
aa(lp640
I191
aI1533
aI7500
aa(lp641
I191
aI1533
aI7500
aa(lp642
I191
aI1533
aI7500
aa(lp643
I191
aI1533
aI7500
aa(lp644
I191
aI1533
aI7500
aa(lp645
I192
aI1533
aI7500
aa(lp646
I192
aI1533
aI7500
aa(lp647
I192
aI1533
aI7500
aa(lp648
I192
aI1533
aI7500
aa(lp649
I192
aI1533
aI7500
aa(lp650
I192
aI1533
aI7500
aa(lp651
I193
aI1533
aI7500
aa(lp652
I193
aI1533
aI7500
aa(lp653
I193
aI1533
aI7500
aa(lp654
I193
aI1533
aI7500
aa(lp655
I193
aI1533
aI7500
aa(lp656
I193
aI1533
aI7500
aa(lp657
I193
aI1533
aI7500
aa(lp658
I194
aI1533
aI7500
aa(lp659
I194
aI1533
aI7500
aa(lp660
I194
aI1533
aI7500
aa(lp661
I194
aI1533
aI7500
aa(lp662
I194
aI1533
aI7500
aa(lp663
I194
aI1533
aI7500
aa(lp664
I195
aI1533
aI7500
aa(lp665
I195
aI1533
aI7500
aa(lp666
I195
aI1533
aI7500
aa(lp667
I195
aI1533
aI7500
aa(lp668
I195
aI1533
aI7500
aa(lp669
I195
aI1533
aI7500
aa(lp670
I196
aI1533
aI7500
aa(lp671
I196
aI1533
aI7500
aa(lp672
I196
aI1533
aI7500
aa(lp673
I196
aI1533
aI7500
aa(lp674
I196
aI1533
aI7500
aa(lp675
I196
aI1533
aI7500
aa(lp676
I197
aI1533
aI7500
aa(lp677
I197
aI1533
aI7500
aa(lp678
I197
aI1533
aI7500
aa(lp679
I197
aI1533
aI7500
aa(lp680
I197
aI1533
aI7500
aa(lp681
I197
aI1533
aI7500
aa(lp682
I197
aI1533
aI7500
aa(lp683
I198
aI1533
aI7500
aa(lp684
I198
aI1533
aI7500
aa(lp685
I198
aI1533
aI7500
aa(lp686
I198
aI1533
aI7500
aa(lp687
I198
aI1533
aI7500
aa(lp688
I198
aI1533
aI7500
aa(lp689
I199
aI1533
aI7500
aa(lp690
I199
aI1533
aI7500
aa(lp691
I199
aI1533
aI7500
aa(lp692
I199
aI1533
aI7500
aa(lp693
I199
aI1533
aI7500
aa(lp694
I199
aI1533
aI7500
aa(lp695
I200
aI1533
aI7500
aa(lp696
I200
aI1533
aI7500
aa(lp697
I200
aI1533
aI7500
aa(lp698
I200
aI1533
aI7500
aa(lp699
I200
aI1533
aI7500
aa(lp700
I200
aI1533
aI7500
aa(lp701
I201
aI1533
aI7500
aa(lp702
I201
aI1533
aI7500
aa(lp703
I201
aI1533
aI7500
aa(lp704
I201
aI1533
aI7500
aa(lp705
I201
aI1533
aI7500
aa(lp706
I201
aI1533
aI7500
aa(lp707
I202
aI1533
aI7500
aa(lp708
I202
aI1533
aI7500
aa(lp709
I202
aI1533
aI7500
aa(lp710
I202
aI1533
aI7500
aa(lp711
I202
aI1533
aI7500
aa(lp712
I202
aI1533
aI7500
aa(lp713
I203
aI1533
aI7500
aa(lp714
I203
aI1533
aI7500
aa(lp715
I203
aI1533
aI7500
aa(lp716
I203
aI1533
aI7500
aa(lp717
I203
aI1533
aI7500
aa(lp718
I203
aI1533
aI7500
aa(lp719
I204
aI1533
aI7500
aa(lp720
I204
aI1533
aI7500
aa(lp721
I204
aI1533
aI7500
aa(lp722
I204
aI1533
aI7500
aa(lp723
I204
aI1533
aI7500
aa(lp724
I205
aI1533
aI7500
aa(lp725
I205
aI1533
aI7500
aa(lp726
I205
aI1533
aI7500
aa(lp727
I205
aI1533
aI7500
aa(lp728
I205
aI1533
aI7500
aa(lp729
I205
aI1533
aI7500
aa(lp730
I206
aI1533
aI7500
aa(lp731
I206
aI1533
aI7500
aa(lp732
I206
aI1533
aI7500
aa(lp733
I206
aI1533
aI7500
aa(lp734
I206
aI1533
aI7500
aa(lp735
I206
aI1533
aI7500
aa(lp736
I207
aI1533
aI7500
aa(lp737
I207
aI1533
aI7500
aa(lp738
I207
aI1533
aI7500
aa(lp739
I207
aI1533
aI7500
aa(lp740
I207
aI1533
aI7500
aa(lp741
I208
aI1533
aI7500
aa(lp742
I208
aI1533
aI7500
aa(lp743
I208
aI1533
aI7500
aa(lp744
I208
aI1533
aI7500
aa(lp745
I208
aI1533
aI7500
aa(lp746
I208
aI1533
aI7500
aa(lp747
I209
aI1533
aI7500
aa(lp748
I209
aI1533
aI7500
aa(lp749
I209
aI1533
aI7500
aa(lp750
I209
aI1533
aI7500
aa(lp751
I209
aI1533
aI7500
aa(lp752
I209
aI1533
aI7500
aa(lp753
I210
aI1533
aI7500
aa(lp754
I210
aI1533
aI7500
aa(lp755
I210
aI1533
aI7500
aa(lp756
I210
aI1533
aI7500
aa(lp757
I210
aI1533
aI7500
aa(lp758
I210
aI1533
aI7500
aa(lp759
I211
aI1533
aI7500
aa(lp760
I211
aI1533
aI7500
aa(lp761
I211
aI1533
aI7500
aa(lp762
I211
aI1533
aI7500
aa(lp763
I211
aI1533
aI7500
aa(lp764
I211
aI1533
aI7500
aa(lp765
I212
aI1533
aI7500
aa(lp766
I212
aI1533
aI7500
aa(lp767
I212
aI1533
aI7500
aa(lp768
I212
aI1533
aI7500
aa(lp769
I212
aI1533
aI7500
aa(lp770
I212
aI1533
aI7500
aa(lp771
I213
aI1533
aI7500
aa(lp772
I213
aI1533
aI7500
aa(lp773
I213
aI1533
aI7500
aa(lp774
I213
aI1533
aI7500
aa(lp775
I213
aI1533
aI7500
aa(lp776
I213
aI1533
aI7500
aa(lp777
I214
aI1533
aI7500
aa(lp778
I214
aI1533
aI7500
aa(lp779
I214
aI1533
aI7500
aa(lp780
I214
aI1533
aI7500
aa(lp781
I214
aI1533
aI7500
aa(lp782
I214
aI1533
aI7500
aa(lp783
I215
aI1533
aI7500
aa(lp784
I215
aI1533
aI7500
aa(lp785
I215
aI1533
aI7500
aa(lp786
I215
aI1533
aI7500
aa(lp787
I215
aI1533
aI7500
aa(lp788
I215
aI1533
aI7500
aa(lp789
I216
aI1533
aI7500
aa(lp790
I216
aI1533
aI7500
aa(lp791
I216
aI1533
aI7500
aa(lp792
I216
aI1533
aI7500
aa(lp793
I216
aI1533
aI7500
aa(lp794
I216
aI1533
aI7500
aa(lp795
I217
aI1533
aI7500
aa(lp796
I217
aI1533
aI7500
aa(lp797
I217
aI1533
aI7500
aa(lp798
I217
aI1533
aI7500
aa(lp799
I217
aI1533
aI7500
aa(lp800
I217
aI1533
aI7500
aa(lp801
I218
aI1533
aI7500
aa(lp802
I218
aI1533
aI7500
aa(lp803
I218
aI1533
aI7500
aa(lp804
I218
aI1533
aI7500
aa(lp805
I218
aI1533
aI7500
aa(lp806
I218
aI1533
aI7500
aa(lp807
I219
aI1533
aI7500
aa(lp808
I219
aI1533
aI7500
aa(lp809
I219
aI1533
aI7500
aa(lp810
I219
aI1533
aI7500
aa(lp811
I219
aI1533
aI7500
aa(lp812
I219
aI1533
aI7500
aa(lp813
I220
aI1533
aI7500
aa(lp814
I220
aI1533
aI7500
aa(lp815
I220
aI1533
aI7500
aa(lp816
I220
aI1533
aI7500
aa(lp817
I220
aI1533
aI7500
aa(lp818
I220
aI1533
aI7500
aa(lp819
I220
aI1533
aI7500
aa(lp820
I221
aI1533
aI7500
aa(lp821
I221
aI1533
aI7500
aa(lp822
I221
aI1533
aI7500
aa(lp823
I221
aI1533
aI7500
aa(lp824
I221
aI1533
aI7500
aa(lp825
I222
aI1533
aI7500
aa(lp826
I222
aI1533
aI7500
aa(lp827
I222
aI1533
aI7500
aa(lp828
I222
aI1533
aI7500
aa(lp829
I222
aI1533
aI7500
aa(lp830
I222
aI1533
aI7500
aa(lp831
I222
aI1533
aI7500
aa(lp832
I223
aI1533
aI7500
aa(lp833
I223
aI1533
aI7500
aa(lp834
I223
aI1533
aI7500
aa(lp835
I223
aI1533
aI7500
aa(lp836
I223
aI1533
aI7500
aa(lp837
I223
aI1533
aI7500
aa(lp838
I224
aI1533
aI7500
aa(lp839
I224
aI1533
aI7500
aa(lp840
I224
aI1533
aI7500
aa(lp841
I224
aI1533
aI7500
aa(lp842
I224
aI1533
aI7500
aa(lp843
I224
aI1533
aI7500
aa(lp844
I225
aI1533
aI7500
aa(lp845
I225
aI1533
aI7500
aa(lp846
I225
aI1533
aI7500
aa(lp847
I225
aI1533
aI7500
aa(lp848
I225
aI1533
aI7500
aa(lp849
I225
aI1533
aI7500
aa(lp850
I226
aI1533
aI7500
aa(lp851
I226
aI1533
aI7500
aa(lp852
I226
aI1533
aI7500
aa(lp853
I226
aI1533
aI7500
aa(lp854
I226
aI1533
aI7500
aa(lp855
I226
aI1533
aI7500
aa(lp856
I227
aI1533
aI7500
aa(lp857
I227
aI1534
aI7500
aa(lp858
I229
aI1548
aI7500
aa(lp859
I230
aI1567
aI7500
aa(lp860
I232
aI1581
aI7500
aa(lp861
I234
aI1598
aI7500
aa(lp862
I236
aI1612
aI7500
aa(lp863
I238
aI1630
aI7500
aa(lp864
I239
aI1642
aI7500
aa(lp865
I241
aI1645
aI7500
aa(lp866
I241
aI1645
aI7500
aa(lp867
I241
aI1645
aI7500
aa(lp868
I241
aI1645
aI7500
aa(lp869
I241
aI1645
aI7500
aa(lp870
I242
aI1646
aI7500
aa(lp871
I243
aI1666
aI7500
aa(lp872
I243
aI1666
aI7500
aa(lp873
I244
aI1666
aI7500
aa(lp874
I244
aI1666
aI7500
aa(lp875
I244
aI1666
aI7500
aa(lp876
I244
aI1666
aI7500
aa(lp877
I244
aI1666
aI7500
aa(lp878
I244
aI1666
aI7500
aa(lp879
I245
aI1679
aI7500
aa(lp880
I246
aI1692
aI7500
aa(lp881
I248
aI1709
aI7500
aa(lp882
I250
aI1710
aI7500
aa(lp883
I250
aI1710
aI7500
aa(lp884
I250
aI1710
aI7500
aa(lp885
I250
aI1710
aI7500
aa(lp886
I250
aI1710
aI7500
aa(lp887
I250
aI1710
aI7500
aa(lp888
I251
aI1710
aI7500
aa(lp889
I251
aI1710
aI7500
aa(lp890
I251
aI1710
aI7500
aa(lp891
I251
aI1710
aI7500
aa(lp892
I251
aI1710
aI7500
aa(lp893
I252
aI1710
aI7500
aa(lp894
I252
aI1710
aI7500
aa(lp895
I252
aI1710
aI7500
aa(lp896
I252
aI1710
aI7500
aa(lp897
I252
aI1710
aI7500
aa(lp898
I253
aI1710
aI7500
aa(lp899
I253
aI1710
aI7500
aa(lp900
I253
aI1710
aI7500
aa(lp901
I253
aI1710
aI7500
aa(lp902
I253
aI1710
aI7500
aa(lp903
I253
aI1710
aI7500
aa(lp904
I254
aI1710
aI7500
aa(lp905
I254
aI1710
aI7500
aa(lp906
I254
aI1710
aI7500
aa(lp907
I254
aI1710
aI7500
aa(lp908
I254
aI1710
aI7500
aa(lp909
I254
aI1710
aI7500
aa(lp910
I255
aI1710
aI7500
aa(lp911
I255
aI1710
aI7500
aa(lp912
I255
aI1710
aI7500
aa(lp913
I255
aI1710
aI7500
aa(lp914
I255
aI1710
aI7500
aa(lp915
I256
aI1710
aI7500
aa(lp916
I256
aI1710
aI7500
aa(lp917
I256
aI1710
aI7500
aa(lp918
I256
aI1710
aI7500
aa(lp919
I256
aI1710
aI7500
aa(lp920
I256
aI1710
aI7500
aa(lp921
I257
aI1710
aI7500
aa(lp922
I257
aI1710
aI7500
aa(lp923
I257
aI1710
aI7500
aa(lp924
I257
aI1710
aI7500
aa(lp925
I257
aI1710
aI7500
aa(lp926
I258
aI1710
aI7500
aa(lp927
I258
aI1710
aI7500
aa(lp928
I258
aI1710
aI7500
aa(lp929
I258
aI1710
aI7500
aa(lp930
I258
aI1710
aI7500
aa(lp931
I258
aI1710
aI7500
aa(lp932
I259
aI1710
aI7500
aa(lp933
I259
aI1710
aI7500
aa(lp934
I259
aI1710
aI7500
aa(lp935
I259
aI1710
aI7500
aa(lp936
I259
aI1710
aI7500
aa(lp937
I259
aI1710
aI7500
aa(lp938
I260
aI1710
aI7500
aa(lp939
I260
aI1710
aI7500
aa(lp940
I260
aI1710
aI7500
aa(lp941
I260
aI1710
aI7500
aa(lp942
I260
aI1710
aI7500
aa(lp943
I260
aI1710
aI7500
aa(lp944
I261
aI1710
aI7500
aa(lp945
I261
aI1710
aI7500
aa(lp946
I261
aI1710
aI7500
aa(lp947
I261
aI1710
aI7500
aa(lp948
I261
aI1710
aI7500
aa(lp949
I261
aI1710
aI7500
aa(lp950
I261
aI1710
aI7500
aa(lp951
I262
aI1710
aI7500
aa(lp952
I262
aI1710
aI7500
aa(lp953
I262
aI1710
aI7500
aa(lp954
I262
aI1710
aI7500
aa(lp955
I262
aI1710
aI7500
aa(lp956
I262
aI1710
aI7500
aa(lp957
I263
aI1710
aI7500
aa(lp958
I263
aI1710
aI7500
aa(lp959
I263
aI1710
aI7500
aa(lp960
I263
aI1710
aI7500
aa(lp961
I263
aI1710
aI7500
aa(lp962
I263
aI1710
aI7500
aa(lp963
I263
aI1710
aI7500
aa(lp964
I264
aI1710
aI7500
aa(lp965
I264
aI1710
aI7500
aa(lp966
I264
aI1710
aI7500
aa(lp967
I264
aI1710
aI7500
aa(lp968
I264
aI1710
aI7500
aa(lp969
I264
aI1710
aI7500
aa(lp970
I265
aI1710
aI7500
aa(lp971
I265
aI1710
aI7500
aa(lp972
I265
aI1710
aI7500
aa(lp973
I265
aI1710
aI7500
aa(lp974
I265
aI1710
aI7500
aa(lp975
I265
aI1710
aI7500
aa(lp976
I266
aI1710
aI7500
aa(lp977
I266
aI1710
aI7500
aa(lp978
I266
aI1710
aI7500
aa(lp979
I266
aI1710
aI7500
aa(lp980
I266
aI1710
aI7500
aa(lp981
I266
aI1710
aI7500
aa(lp982
I267
aI1710
aI7500
aa(lp983
I267
aI1710
aI7500
aa(lp984
I267
aI1710
aI7500
aa(lp985
I267
aI1710
aI7500
aa(lp986
I267
aI1710
aI7500
aa(lp987
I267
aI1710
aI7500
aa(lp988
I267
aI1710
aI7500
aa(lp989
I268
aI1710
aI7500
aa(lp990
I268
aI1710
aI7500
aa(lp991
I268
aI1710
aI7500
aa(lp992
I268
aI1710
aI7500
aa(lp993
I269
aI1711
aI7500
aa(lp994
I269
aI1711
aI7500
aa(lp995
I270
aI1711
aI7500
aa(lp996
I270
aI1711
aI7500
aa(lp997
I270
aI1711
aI7500
aa(lp998
I270
aI1711
aI7500
aa(lp999
I270
aI1711
aI7500
aa(lp1000
I271
aI1713
aI7500
aa(lp1001
I272
aI1713
aI7500
aa(lp1002
I272
aI1713
aI7500
aa(lp1003
I272
aI1713
aI7500
aa(lp1004
I272
aI1713
aI7500
aa(lp1005
I272
aI1713
aI7500
aa(lp1006
I274
aI1715
aI7500
aa(lp1007
I274
aI1715
aI7500
aa(lp1008
I274
aI1715
aI7500
aa(lp1009
I274
aI1715
aI7500
aa(lp1010
I274
aI1715
aI7500
aa(lp1011
I274
aI1715
aI7500
aa(lp1012
I274
aI1715
aI7500
aa(lp1013
I275
aI1715
aI7500
aa(lp1014
I275
aI1715
aI7500
aa(lp1015
I275
aI1715
aI7500
aa(lp1016
I275
aI1715
aI7500
aa(lp1017
I275
aI1715
aI7500
aa(lp1018
I275
aI1715
aI7500
aa(lp1019
I276
aI1715
aI7500
aa(lp1020
I276
aI1715
aI7500
aa(lp1021
I276
aI1715
aI7500
aa(lp1022
I276
aI1715
aI7500
aa(lp1023
I276
aI1715
aI7500
aa(lp1024
I276
aI1715
aI7500
aa(lp1025
I277
aI1715
aI7500
aa(lp1026
I277
aI1715
aI7500
aa(lp1027
I277
aI1715
aI7500
aa(lp1028
I277
aI1715
aI7500
aa(lp1029
I277
aI1715
aI7500
aa(lp1030
I277
aI1715
aI7500
aa(lp1031
I279
aI1722
aI7500
aa(lp1032
I279
aI1722
aI7500
aa(lp1033
I279
aI1722
aI7500
aa(lp1034
I279
aI1722
aI7500
aa(lp1035
I279
aI1722
aI7500
aa(lp1036
I281
aI1728
aI7500
aa(lp1037
I283
aI1729
aI7500
aa(lp1038
I283
aI1729
aI7500
aa(lp1039
I283
aI1729
aI7500
aa(lp1040
I283
aI1729
aI7500
aa(lp1041
I283
aI1729
aI7500
aa(lp1042
I283
aI1729
aI7500
aa(lp1043
I284
aI1729
aI7500
aa(lp1044
I284
aI1729
aI7500
aa(lp1045
I285
aI1732
aI7500
aa(lp1046
I285
aI1732
aI7500
aa(lp1047
I286
aI1732
aI7500
aa(lp1048
I286
aI1732
aI7500
aa(lp1049
I286
aI1737
aI7500
aa(lp1050
I288
aI1746
aI7500
aa(lp1051
I288
aI1746
aI7500
aa(lp1052
I288
aI1746
aI7500
aa(lp1053
I288
aI1746
aI7500
aa(lp1054
I288
aI1746
aI7500
aa(lp1055
I288
aI1746
aI7500
aa(lp1056
I289
aI1746
aI7500
aa(lp1057
I289
aI1746
aI7500
aa(lp1058
I289
aI1752
aI7500
aa(lp1059
I291
aI1760
aI7500
aa(lp1060
I291
aI1760
aI7500
aa(lp1061
I291
aI1760
aI7500
aa(lp1062
I291
aI1760
aI7500
aa(lp1063
I291
aI1760
aI7500
aa(lp1064
I291
aI1760
aI7500
aa(lp1065
I292
aI1760
aI7500
aa(lp1066
I292
aI1760
aI7500
aa(lp1067
I292
aI1781
aI7500
aa(lp1068
I293
aI1828
aI7500
aa(lp1069
I294
aI1828
aI7500
aa(lp1070
I294
aI1828
aI7500
aa(lp1071
I294
aI1828
aI7500
aa(lp1072
I294
aI1828
aI7500
aa(lp1073
I294
aI1828
aI7500
aa(lp1074
I294
aI1828
aI7500
aa(lp1075
I295
aI1828
aI7500
aa(lp1076
I296
aI1972
aI7500
aa(lp1077
I298
aI1986
aI7500
aa(lp1078
I300
aI2007
aI7500
aa(lp1079
I301
aI2020
aI7500
aa(lp1080
I302
aI2024
aI7500
aa(lp1081
I303
aI2036
aI7500
aa(lp1082
I303
aI2036
aI7500
aa(lp1083
I304
aI2038
aI7500
aa(lp1084
I305
aI2048
aI7500
aa(lp1085
I305
aI2048
aI7500
aa(lp1086
I306
aI2048
aI7500
aa(lp1087
I306
aI2048
aI7500
aa(lp1088
I306
aI2048
aI7500
aa(lp1089
I306
aI2048
aI7500
aa(lp1090
I306
aI2048
aI7500
aa(lp1091
I306
aI2048
aI7500
aa(lp1092
I307
aI2059
aI7500
aa(lp1093
I308
aI2079
aI7500
aa(lp1094
I308
aI2079
aI7500
aa(lp1095
I308
aI2079
aI7500
aa(lp1096
I309
aI2079
aI7500
aa(lp1097
I309
aI2079
aI7500
aa(lp1098
I309
aI2079
aI7500
aa(lp1099
I309
aI2079
aI7500
aa(lp1100
I309
aI2079
aI7500
aa(lp1101
I309
aI2079
aI7500
aa(lp1102
I310
aI2079
aI7500
aa(lp1103
I310
aI2079
aI7500
aa(lp1104
I310
aI2079
aI7500
aa(lp1105
I310
aI2079
aI7500
aa(lp1106
I310
aI2079
aI7500
aa(lp1107
I310
aI2079
aI7500
aa(lp1108
I310
aI2079
aI7500
aa(lp1109
I311
aI2079
aI7500
aa(lp1110
I311
aI2079
aI7500
aa(lp1111
I311
aI2079
aI7500
aa(lp1112
I311
aI2079
aI7500
aa(lp1113
I311
aI2079
aI7500
aa(lp1114
I312
aI2079
aI7500
aa(lp1115
I312
aI2079
aI7500
aa(lp1116
I312
aI2079
aI7500
aa(lp1117
I312
aI2079
aI7500
aa(lp1118
I312
aI2079
aI7500
aa(lp1119
I313
aI2079
aI7500
aa(lp1120
I313
aI2079
aI7500
aa(lp1121
I313
aI2079
aI7500
aa(lp1122
I313
aI2079
aI7500
aa(lp1123
I313
aI2079
aI7500
aa(lp1124
I313
aI2079
aI7500
aa(lp1125
I314
aI2079
aI7500
aa(lp1126
I314
aI2079
aI7500
aa(lp1127
I314
aI2079
aI7500
aa(lp1128
I314
aI2079
aI7500
aa(lp1129
I314
aI2079
aI7500
aa(lp1130
I314
aI2079
aI7500
aa(lp1131
I315
aI2079
aI7500
aa(lp1132
I315
aI2079
aI7500
aa(lp1133
I315
aI2079
aI7500
aa(lp1134
I315
aI2079
aI7500
aa(lp1135
I315
aI2079
aI7500
aa(lp1136
I315
aI2083
aI7500
aa(lp1137
I317
aI2090
aI7500
aa(lp1138
I317
aI2090
aI7500
aa(lp1139
I317
aI2090
aI7500
aa(lp1140
I317
aI2090
aI7500
aa(lp1141
I318
aI2090
aI7500
aa(lp1142
I318
aI2090
aI7500
aa(lp1143
I318
aI2090
aI7500
aa(lp1144
I318
aI2116
aI7500
aa(lp1145
I320
aI2134
aI7500
aa(lp1146
I320
aI2136
aI7500
aa(lp1147
I321
aI2167
aI7500
aa(lp1148
I323
aI2202
aI7500
aa(lp1149
I325
aI2218
aI7500
aa(lp1150
I325
aI2218
aI7500
aa(lp1151
I326
aI2218
aI7500
aa(lp1152
I326
aI2218
aI7500
aa(lp1153
I326
aI2218
aI7500
aa(lp1154
I326
aI2218
aI7500
aa(lp1155
I326
aI2218
aI7500
aa(lp1156
I326
aI2218
aI7500
aa(lp1157
I327
aI2218
aI7500
aa(lp1158
I327
aI2218
aI7500
aa(lp1159
I327
aI2218
aI7500
aa(lp1160
I327
aI2218
aI7500
aa(lp1161
I327
aI2218
aI7500
aa(lp1162
I328
aI2218
aI7500
aa(lp1163
I328
aI2218
aI7500
aa(lp1164
I328
aI2218
aI7500
aa(lp1165
I328
aI2218
aI7500
aa(lp1166
I328
aI2218
aI7500
aa(lp1167
I328
aI2218
aI7500
aa(lp1168
I329
aI2218
aI7500
aa(lp1169
I329
aI2218
aI7500
aa(lp1170
I329
aI2218
aI7500
aa(lp1171
I329
aI2218
aI7500
aa(lp1172
I329
aI2218
aI7500
aa(lp1173
I329
aI2218
aI7500
aa(lp1174
I330
aI2218
aI7500
aa(lp1175
I330
aI2218
aI7500
aa(lp1176
I330
aI2218
aI7500
aa(lp1177
I330
aI2218
aI7500
aa(lp1178
I330
aI2218
aI7500
aa(lp1179
I331
aI2218
aI7500
aa(lp1180
I331
aI2218
aI7500
aa(lp1181
I331
aI2218
aI7500
aa(lp1182
I331
aI2218
aI7500
aa(lp1183
I331
aI2218
aI7500
aa(lp1184
I332
aI2218
aI7500
aa(lp1185
I332
aI2218
aI7500
aa(lp1186
I332
aI2218
aI7500
aa(lp1187
I332
aI2218
aI7500
aa(lp1188
I332
aI2218
aI7500
aa(lp1189
I332
aI2218
aI7500
aa(lp1190
I332
aI2218
aI7500
aa(lp1191
I334
aI2229
aI7500
aa(lp1192
I334
aI2229
aI7500
aa(lp1193
I334
aI2229
aI7500
aa(lp1194
I335
aI2229
aI7500
aa(lp1195
I335
aI2229
aI7500
aa(lp1196
I335
aI2229
aI7500
aa(lp1197
I335
aI2229
aI7500
aa(lp1198
I337
aI2236
aI7500
aa(lp1199
I337
aI2236
aI7500
aa(lp1200
I337
aI2236
aI7500
aa(lp1201
I337
aI2236
aI7500
aa(lp1202
I338
aI2236
aI7500
aa(lp1203
I338
aI2236
aI7500
aa(lp1204
I338
aI2236
aI7500
aa(lp1205
I338
aI2261
aI7500
aa(lp1206
I340
aI2261
aI7500
aa(lp1207
I340
aI2261
aI7500
aa(lp1208
I340
aI2261
aI7500
aa(lp1209
I341
aI2261
aI7500
aa(lp1210
I341
aI2261
aI7500
aa(lp1211
I341
aI2261
aI7500
aa(lp1212
I341
aI2261
aI7500
aa(lp1213
I341
aI2261
aI7500
aa(lp1214
I342
aI2261
aI7500
aa(lp1215
I342
aI2261
aI7500
aa(lp1216
I342
aI2261
aI7500
aa(lp1217
I342
aI2261
aI7500
aa(lp1218
I342
aI2261
aI7500
aa(lp1219
I342
aI2261
aI7500
aa(lp1220
I343
aI2261
aI7500
aa(lp1221
I343
aI2261
aI7500
aa(lp1222
I343
aI2261
aI7500
aa(lp1223
I343
aI2261
aI7500
aa(lp1224
I343
aI2261
aI7500
aa(lp1225
I344
aI2261
aI7500
aa(lp1226
I344
aI2261
aI7500
aa(lp1227
I344
aI2261
aI7500
aa(lp1228
I344
aI2261
aI7500
aa(lp1229
I344
aI2261
aI7500
aa(lp1230
I344
aI2261
aI7500
aa(lp1231
I345
aI2261
aI7500
aa(lp1232
I345
aI2261
aI7500
aa(lp1233
I345
aI2266
aI7500
aa(lp1234
I346
aI2266
aI7500
aa(lp1235
I346
aI2266
aI7500
aa(lp1236
I346
aI2266
aI7500
aa(lp1237
I346
aI2266
aI7500
aa(lp1238
I347
aI2266
aI7500
aa(lp1239
I347
aI2266
aI7500
aa(lp1240
I347
aI2266
aI7500
aa(lp1241
I349
aI2304
aI7500
aa(lp1242
I349
aI2304
aI7500
aa(lp1243
I349
aI2307
aI7500
aa(lp1244
I351
aI2307
aI7500
aa(lp1245
I351
aI2307
aI7500
aa(lp1246
I351
aI2307
aI7500
aa(lp1247
I352
aI2307
aI7500
aa(lp1248
I352
aI2307
aI7500
aa(lp1249
I352
aI2307
aI7500
aa(lp1250
I352
aI2307
aI7500
aa(lp1251
I352
aI2307
aI7500
aa(lp1252
I352
aI2307
aI7500
aa(lp1253
I353
aI2307
aI7500
aa(lp1254
I353
aI2307
aI7500
aa(lp1255
I353
aI2307
aI7500
aa(lp1256
I353
aI2307
aI7500
aa(lp1257
I353
aI2307
aI7500
aa(lp1258
I354
aI2307
aI7500
aa(lp1259
I354
aI2307
aI7500
aa(lp1260
I354
aI2307
aI7500
aa(lp1261
I354
aI2307
aI7500
aa(lp1262
I354
aI2307
aI7500
aa(lp1263
I354
aI2307
aI7500
aa(lp1264
I355
aI2307
aI7500
aa(lp1265
I355
aI2307
aI7500
aa(lp1266
I355
aI2307
aI7500
aa(lp1267
I355
aI2307
aI7500
aa(lp1268
I355
aI2307
aI7500
aa(lp1269
I355
aI2307
aI7500
aa(lp1270
I356
aI2307
aI7500
aa(lp1271
I356
aI2307
aI7500
aa(lp1272
I356
aI2307
aI7500
aa(lp1273
I356
aI2307
aI7500
aa(lp1274
I356
aI2307
aI7500
aa(lp1275
I357
aI2307
aI7500
aa(lp1276
I357
aI2307
aI7500
aa(lp1277
I357
aI2307
aI7500
aa(lp1278
I357
aI2307
aI7500
aa(lp1279
I357
aI2307
aI7500
aa(lp1280
I358
aI2307
aI7500
aa(lp1281
I358
aI2307
aI7500
aa(lp1282
I358
aI2307
aI7500
aa(lp1283
I358
aI2307
aI7500
aa(lp1284
I358
aI2307
aI7500
aa(lp1285
I358
aI2307
aI7500
aa(lp1286
I359
aI2307
aI7500
aa(lp1287
I359
aI2307
aI7500
aa(lp1288
I359
aI2307
aI7500
aa(lp1289
I359
aI2307
aI7500
aa(lp1290
I359
aI2307
aI7500
aa(lp1291
I359
aI2307
aI7500
aa(lp1292
I360
aI2307
aI7500
aa(lp1293
I360
aI2307
aI7500
aa(lp1294
I360
aI2307
aI7500
aa(lp1295
I360
aI2307
aI7500
aa(lp1296
I360
aI2307
aI7500
aa(lp1297
I361
aI2307
aI7500
aa(lp1298
I361
aI2307
aI7500
aa(lp1299
I361
aI2307
aI7500
aa(lp1300
I361
aI2307
aI7500
aa(lp1301
I361
aI2307
aI7500
aa(lp1302
I361
aI2307
aI7500
aa(lp1303
I362
aI2307
aI7500
aa(lp1304
I362
aI2307
aI7500
aa(lp1305
I362
aI2307
aI7500
aa(lp1306
I362
aI2307
aI7500
aa(lp1307
I362
aI2307
aI7500
aa(lp1308
I363
aI2307
aI7500
aa(lp1309
I363
aI2307
aI7500
aa(lp1310
I363
aI2307
aI7500
aa(lp1311
I363
aI2307
aI7500
aa(lp1312
I363
aI2307
aI7500
aa(lp1313
I364
aI2307
aI7500
aa(lp1314
I364
aI2307
aI7500
aa(lp1315
I364
aI2307
aI7500
aa(lp1316
I364
aI2307
aI7500
aa(lp1317
I364
aI2307
aI7500
aa(lp1318
I364
aI2307
aI7500
aa(lp1319
I365
aI2307
aI7500
aa(lp1320
I365
aI2307
aI7500
aa(lp1321
I365
aI2307
aI7500
aa(lp1322
I365
aI2307
aI7500
aa(lp1323
I365
aI2307
aI7500
aa(lp1324
I366
aI2307
aI7500
aa(lp1325
I366
aI2307
aI7500
aa(lp1326
I366
aI2307
aI7500
aa(lp1327
I366
aI2307
aI7500
aa(lp1328
I366
aI2307
aI7500
aa(lp1329
I366
aI2307
aI7500
aa(lp1330
I367
aI2307
aI7500
aa(lp1331
I367
aI2307
aI7500
aa(lp1332
I367
aI2307
aI7500
aa(lp1333
I367
aI2307
aI7500
aa(lp1334
I367
aI2307
aI7500
aa(lp1335
I367
aI2307
aI7500
aa(lp1336
I368
aI2307
aI7500
aa(lp1337
I368
aI2307
aI7500
aa(lp1338
I368
aI2307
aI7500
aa(lp1339
I368
aI2307
aI7500
aa(lp1340
I368
aI2307
aI7500
aa(lp1341
I369
aI2307
aI7500
aa(lp1342
I369
aI2307
aI7500
aa(lp1343
I369
aI2307
aI7500
aa(lp1344
I369
aI2307
aI7500
aa(lp1345
I369
aI2307
aI7500
aa(lp1346
I369
aI2307
aI7500
aa(lp1347
I370
aI2307
aI7500
aa(lp1348
I370
aI2307
aI7500
aa(lp1349
I370
aI2307
aI7500
aa(lp1350
I370
aI2307
aI7500
aa(lp1351
I370
aI2307
aI7500
aa(lp1352
I370
aI2307
aI7500
aa(lp1353
I371
aI2307
aI7500
aa(lp1354
I371
aI2307
aI7500
aa(lp1355
I371
aI2307
aI7500
aa(lp1356
I371
aI2307
aI7500
aa(lp1357
I371
aI2307
aI7500
aa(lp1358
I372
aI2307
aI7500
aa(lp1359
I372
aI2307
aI7500
aa(lp1360
I372
aI2307
aI7500
aa(lp1361
I372
aI2307
aI7500
aa(lp1362
I372
aI2307
aI7500
aa(lp1363
I373
aI2307
aI7500
aa(lp1364
I373
aI2307
aI7500
aa(lp1365
I373
aI2307
aI7500
aa(lp1366
I373
aI2307
aI7500
aa(lp1367
I373
aI2307
aI7500
aa(lp1368
I373
aI2307
aI7500
aa(lp1369
I374
aI2307
aI7500
aa(lp1370
I374
aI2307
aI7500
aa(lp1371
I374
aI2307
aI7500
aa(lp1372
I374
aI2307
aI7500
aa(lp1373
I374
aI2307
aI7500
aa(lp1374
I374
aI2307
aI7500
aa(lp1375
I375
aI2307
aI7500
aa(lp1376
I375
aI2307
aI7500
aa(lp1377
I375
aI2307
aI7500
aa(lp1378
I375
aI2307
aI7500
aa(lp1379
I375
aI2307
aI7500
aa(lp1380
I376
aI2307
aI7500
aa(lp1381
I376
aI2307
aI7500
aa(lp1382
I376
aI2307
aI7500
aa(lp1383
I376
aI2307
aI7500
aa(lp1384
I376
aI2307
aI7500
aa(lp1385
I376
aI2307
aI7500
aa(lp1386
I377
aI2307
aI7500
aa(lp1387
I377
aI2307
aI7500
aa(lp1388
I377
aI2307
aI7500
aa(lp1389
I377
aI2307
aI7500
aa(lp1390
I377
aI2307
aI7500
aa(lp1391
I377
aI2307
aI7500
aa(lp1392
I378
aI2307
aI7500
aa(lp1393
I378
aI2307
aI7500
aa(lp1394
I378
aI2307
aI7500
aa(lp1395
I378
aI2307
aI7500
aa(lp1396
I378
aI2307
aI7500
aa(lp1397
I379
aI2307
aI7500
aa(lp1398
I379
aI2307
aI7500
aa(lp1399
I379
aI2307
aI7500
aa(lp1400
I379
aI2307
aI7500
aa(lp1401
I379
aI2307
aI7500
aa(lp1402
I379
aI2307
aI7500
aa(lp1403
I380
aI2307
aI7500
aa(lp1404
I380
aI2307
aI7500
aa(lp1405
I380
aI2307
aI7500
aa(lp1406
I380
aI2307
aI7500
aa(lp1407
I380
aI2307
aI7500
aa(lp1408
I381
aI2307
aI7500
aa(lp1409
I381
aI2307
aI7500
aa(lp1410
I381
aI2307
aI7500
aa(lp1411
I381
aI2307
aI7500
aa(lp1412
I381
aI2307
aI7500
aa(lp1413
I381
aI2307
aI7500
aa(lp1414
I382
aI2307
aI7500
aa(lp1415
I382
aI2307
aI7500
aa(lp1416
I382
aI2307
aI7500
aa(lp1417
I382
aI2307
aI7500
aa(lp1418
I382
aI2307
aI7500
aa(lp1419
I383
aI2307
aI7500
aa(lp1420
I383
aI2307
aI7500
aa(lp1421
I383
aI2307
aI7500
aa(lp1422
I383
aI2307
aI7500
aa(lp1423
I383
aI2307
aI7500
aa(lp1424
I383
aI2307
aI7500
aa(lp1425
I384
aI2307
aI7500
aa(lp1426
I384
aI2307
aI7500
aa(lp1427
I384
aI2307
aI7500
aa(lp1428
I384
aI2307
aI7500
aa(lp1429
I384
aI2307
aI7500
aa(lp1430
I384
aI2307
aI7500
aa(lp1431
I385
aI2307
aI7500
aa(lp1432
I385
aI2307
aI7500
aa(lp1433
I385
aI2307
aI7500
aa(lp1434
I385
aI2307
aI7500
aa(lp1435
I385
aI2307
aI7500
aa(lp1436
I386
aI2307
aI7500
aa(lp1437
I386
aI2307
aI7500
aa(lp1438
I386
aI2307
aI7500
aa(lp1439
I386
aI2307
aI7500
aa(lp1440
I386
aI2307
aI7500
aa(lp1441
I387
aI2307
aI7500
aa(lp1442
I387
aI2307
aI7500
aa(lp1443
I387
aI2307
aI7500
aa(lp1444
I387
aI2307
aI7500
aa(lp1445
I387
aI2307
aI7500
aa(lp1446
I387
aI2307
aI7500
aa(lp1447
I388
aI2307
aI7500
aa(lp1448
I388
aI2307
aI7500
aa(lp1449
I388
aI2307
aI7500
aa(lp1450
I388
aI2307
aI7500
aa(lp1451
I388
aI2307
aI7500
aa(lp1452
I388
aI2307
aI7500
aa(lp1453
I389
aI2307
aI7500
aa(lp1454
I389
aI2307
aI7500
aa(lp1455
I389
aI2307
aI7500
aa(lp1456
I389
aI2307
aI7500
aa(lp1457
I389
aI2307
aI7500
aa(lp1458
I390
aI2307
aI7500
aa(lp1459
I390
aI2307
aI7500
aa(lp1460
I390
aI2307
aI7500
aa(lp1461
I390
aI2307
aI7500
aa(lp1462
I390
aI2307
aI7500
aa(lp1463
I390
aI2307
aI7500
aa(lp1464
I391
aI2307
aI7500
aa(lp1465
I391
aI2307
aI7500
aa(lp1466
I391
aI2307
aI7500
aa(lp1467
I391
aI2307
aI7500
aa(lp1468
I391
aI2307
aI7500
aa(lp1469
I392
aI2307
aI7500
aa(lp1470
I392
aI2307
aI7500
aa(lp1471
I392
aI2307
aI7500
aa(lp1472
I392
aI2307
aI7500
aa(lp1473
I392
aI2307
aI7500
aa(lp1474
I393
aI2307
aI7500
aa(lp1475
I393
aI2307
aI7500
aa(lp1476
I393
aI2307
aI7500
aa(lp1477
I393
aI2307
aI7500
aa(lp1478
I393
aI2307
aI7500
aa(lp1479
I393
aI2307
aI7500
aa(lp1480
I394
aI2307
aI7500
aa(lp1481
I394
aI2307
aI7500
aa(lp1482
I394
aI2307
aI7500
aa(lp1483
I394
aI2307
aI7500
aa(lp1484
I394
aI2307
aI7500
aa(lp1485
I395
aI2307
aI7500
aa(lp1486
I395
aI2307
aI7500
aa(lp1487
I395
aI2307
aI7500
aa(lp1488
I395
aI2307
aI7500
aa(lp1489
I395
aI2307
aI7500
aa(lp1490
I396
aI2307
aI7500
aa(lp1491
I396
aI2307
aI7500
aa(lp1492
I396
aI2307
aI7500
aa(lp1493
I396
aI2307
aI7500
aa(lp1494
I396
aI2307
aI7500
aa(lp1495
I397
aI2307
aI7500
aa(lp1496
I397
aI2307
aI7500
aa(lp1497
I397
aI2307
aI7500
aa(lp1498
I397
aI2307
aI7500
aa(lp1499
I397
aI2307
aI7500
aa(lp1500
I398
aI2307
aI7500
aa(lp1501
I398
aI2307
aI7500
aa(lp1502
I398
aI2307
aI7500
aa(lp1503
I398
aI2307
aI7500
aa(lp1504
I398
aI2307
aI7500
aa(lp1505
I398
aI2307
aI7500
aa(lp1506
I399
aI2307
aI7500
aa(lp1507
I399
aI2307
aI7500
aa(lp1508
I399
aI2307
aI7500
aa(lp1509
I399
aI2307
aI7500
aa(lp1510
I399
aI2307
aI7500
aa(lp1511
I400
aI2307
aI7500
aa(lp1512
I400
aI2307
aI7500
aa(lp1513
I400
aI2307
aI7500
aa(lp1514
I400
aI2307
aI7500
aa(lp1515
I400
aI2307
aI7500
aa(lp1516
I401
aI2307
aI7500
aa(lp1517
I401
aI2307
aI7500
aa(lp1518
I401
aI2307
aI7500
aa(lp1519
I401
aI2307
aI7500
aa(lp1520
I401
aI2307
aI7500
aa(lp1521
I401
aI2307
aI7500
aa(lp1522
I402
aI2307
aI7500
aa(lp1523
I402
aI2307
aI7500
aa(lp1524
I402
aI2307
aI7500
aa(lp1525
I402
aI2307
aI7500
aa(lp1526
I403
aI2307
aI7500
aa(lp1527
I403
aI2307
aI7500
aa(lp1528
I403
aI2307
aI7500
aa(lp1529
I403
aI2307
aI7500
aa(lp1530
I403
aI2307
aI7500
aa(lp1531
I404
aI2307
aI7500
aa(lp1532
I404
aI2307
aI7500
aa(lp1533
I404
aI2307
aI7500
aa(lp1534
I404
aI2307
aI7500
aa(lp1535
I404
aI2307
aI7500
aa(lp1536
I404
aI2307
aI7500
aa(lp1537
I405
aI2307
aI7500
aa(lp1538
I405
aI2307
aI7500
aa(lp1539
I405
aI2307
aI7500
aa(lp1540
I405
aI2307
aI7500
aa(lp1541
I405
aI2307
aI7500
aa(lp1542
I406
aI2307
aI7500
aa(lp1543
I406
aI2307
aI7500
aa(lp1544
I406
aI2307
aI7500
aa(lp1545
I406
aI2307
aI7500
aa(lp1546
I406
aI2307
aI7500
aa(lp1547
I407
aI2307
aI7500
aa(lp1548
I407
aI2307
aI7500
aa(lp1549
I407
aI2307
aI7500
aa(lp1550
I407
aI2307
aI7500
aa(lp1551
I407
aI2307
aI7500
aa(lp1552
I408
aI2307
aI7500
aa(lp1553
I408
aI2307
aI7500
aa(lp1554
I408
aI2307
aI7500
aa(lp1555
I408
aI2307
aI7500
aa(lp1556
I408
aI2307
aI7500
aa(lp1557
I409
aI2307
aI7500
aa(lp1558
I409
aI2307
aI7500
aa(lp1559
I409
aI2307
aI7500
aa(lp1560
I409
aI2307
aI7500
aa(lp1561
I409
aI2307
aI7500
aa(lp1562
I409
aI2307
aI7500
aa(lp1563
I410
aI2307
aI7500
aa(lp1564
I410
aI2307
aI7500
aa(lp1565
I410
aI2307
aI7500
aa(lp1566
I410
aI2307
aI7500
aa(lp1567
I410
aI2307
aI7500
aa(lp1568
I411
aI2307
aI7500
aa(lp1569
I411
aI2307
aI7500
aa(lp1570
I411
aI2307
aI7500
aa(lp1571
I411
aI2307
aI7500
aa(lp1572
I411
aI2307
aI7500
aa(lp1573
I411
aI2307
aI7500
aa(lp1574
I412
aI2307
aI7500
aa(lp1575
I412
aI2307
aI7500
aa(lp1576
I412
aI2307
aI7500
aa(lp1577
I412
aI2307
aI7500
aa(lp1578
I412
aI2307
aI7500
aa(lp1579
I413
aI2307
aI7500
aa(lp1580
I413
aI2307
aI7500
aa(lp1581
I413
aI2307
aI7500
aa(lp1582
I413
aI2307
aI7500
aa(lp1583
I413
aI2307
aI7500
aa(lp1584
I413
aI2307
aI7500
aa(lp1585
I414
aI2307
aI7500
aa(lp1586
I414
aI2307
aI7500
aa(lp1587
I414
aI2307
aI7500
aa(lp1588
I414
aI2307
aI7500
aa(lp1589
I414
aI2307
aI7500
aa(lp1590
I415
aI2307
aI7500
aa(lp1591
I415
aI2307
aI7500
aa(lp1592
I415
aI2307
aI7500
aa(lp1593
I415
aI2307
aI7500
aa(lp1594
I415
aI2307
aI7500
aa(lp1595
I416
aI2307
aI7500
aa(lp1596
I416
aI2307
aI7500
aa(lp1597
I416
aI2307
aI7500
aa(lp1598
I416
aI2307
aI7500
aa(lp1599
I416
aI2307
aI7500
aa(lp1600
I417
aI2307
aI7500
aa(lp1601
I417
aI2307
aI7500
aa(lp1602
I417
aI2307
aI7500
aa(lp1603
I417
aI2307
aI7500
aa(lp1604
I417
aI2307
aI7500
aa(lp1605
I417
aI2307
aI7500
aa(lp1606
I418
aI2307
aI7500
aa(lp1607
I418
aI2307
aI7500
aa(lp1608
I418
aI2307
aI7500
aa(lp1609
I418
aI2307
aI7500
aa(lp1610
I418
aI2307
aI7500
aa(lp1611
I419
aI2307
aI7500
aa(lp1612
I419
aI2307
aI7500
aa(lp1613
I419
aI2307
aI7500
aa(lp1614
I419
aI2307
aI7500
aa(lp1615
I419
aI2307
aI7500
aa(lp1616
I420
aI2307
aI7500
aa(lp1617
I420
aI2307
aI7500
aa(lp1618
I420
aI2307
aI7500
aa(lp1619
I420
aI2307
aI7500
aa(lp1620
I420
aI2307
aI7500
aa(lp1621
I420
aI2307
aI7500
aa(lp1622
I421
aI2307
aI7500
aa(lp1623
I421
aI2307
aI7500
aa(lp1624
I421
aI2307
aI7500
aa(lp1625
I421
aI2307
aI7500
aa(lp1626
I422
aI2307
aI7500
aa(lp1627
I422
aI2307
aI7500
aa(lp1628
I422
aI2307
aI7500
aa(lp1629
I422
aI2307
aI7500
aa(lp1630
I422
aI2307
aI7500
aa(lp1631
I423
aI2307
aI7500
aa(lp1632
I423
aI2307
aI7500
aa(lp1633
I423
aI2307
aI7500
aa(lp1634
I423
aI2307
aI7500
aa(lp1635
I423
aI2307
aI7500
aa(lp1636
I424
aI2307
aI7500
aa(lp1637
I424
aI2307
aI7500
aa(lp1638
I424
aI2307
aI7500
aa(lp1639
I424
aI2307
aI7500
aa(lp1640
I424
aI2307
aI7500
aa(lp1641
I425
aI2307
aI7500
aa(lp1642
I425
aI2307
aI7500
aa(lp1643
I425
aI2307
aI7500
aa(lp1644
I425
aI2307
aI7500
aa(lp1645
I425
aI2307
aI7500
aa(lp1646
I425
aI2307
aI7500
aa(lp1647
I426
aI2307
aI7500
aa(lp1648
I426
aI2307
aI7500
aa(lp1649
I426
aI2307
aI7500
aa(lp1650
I426
aI2307
aI7500
aa(lp1651
I426
aI2307
aI7500
aa(lp1652
I427
aI2307
aI7500
aa(lp1653
I427
aI2307
aI7500
aa(lp1654
I427
aI2307
aI7500
aa(lp1655
I427
aI2307
aI7500
aa(lp1656
I427
aI2307
aI7500
aa(lp1657
I427
aI2307
aI7500
aa(lp1658
I428
aI2307
aI7500
aa(lp1659
I428
aI2307
aI7500
aa(lp1660
I428
aI2307
aI7500
aa(lp1661
I428
aI2307
aI7500
aa(lp1662
I428
aI2307
aI7500
aa(lp1663
I428
aI2307
aI7500
aa(lp1664
I429
aI2307
aI7500
aa(lp1665
I429
aI2307
aI7500
aa(lp1666
I429
aI2307
aI7500
aa(lp1667
I429
aI2307
aI7500
aa(lp1668
I429
aI2307
aI7500
aa(lp1669
I430
aI2307
aI7500
aa(lp1670
I430
aI2307
aI7500
aa(lp1671
I430
aI2307
aI7500
aa(lp1672
I430
aI2307
aI7500
aa(lp1673
I430
aI2307
aI7500
aa(lp1674
I430
aI2307
aI7500
aa(lp1675
I431
aI2307
aI7500
aa(lp1676
I431
aI2307
aI7500
aa(lp1677
I431
aI2307
aI7500
aa(lp1678
I431
aI2307
aI7500
aa(lp1679
I431
aI2307
aI7500
aa(lp1680
I431
aI2307
aI7500
aa(lp1681
I432
aI2307
aI7500
aa(lp1682
I432
aI2307
aI7500
aa(lp1683
I432
aI2307
aI7500
aa(lp1684
I432
aI2307
aI7500
aa(lp1685
I432
aI2307
aI7500
aa(lp1686
I432
aI2307
aI7500
aa(lp1687
I433
aI2307
aI7500
aa(lp1688
I433
aI2307
aI7500
aa(lp1689
I433
aI2307
aI7500
aa(lp1690
I433
aI2307
aI7500
aa(lp1691
I433
aI2307
aI7500
aa(lp1692
I434
aI2307
aI7500
aa(lp1693
I434
aI2307
aI7500
aa(lp1694
I434
aI2307
aI7500
aa(lp1695
I434
aI2307
aI7500
aa(lp1696
I434
aI2307
aI7500
aa(lp1697
I435
aI2307
aI7500
aa(lp1698
I435
aI2307
aI7500
aa(lp1699
I435
aI2307
aI7500
aa(lp1700
I435
aI2307
aI7500
aa(lp1701
I435
aI2307
aI7500
aa(lp1702
I435
aI2307
aI7500
aa(lp1703
I436
aI2307
aI7500
aa(lp1704
I436
aI2307
aI7500
aa(lp1705
I436
aI2307
aI7500
aa(lp1706
I436
aI2307
aI7500
aa(lp1707
I436
aI2307
aI7500
aa(lp1708
I436
aI2307
aI7500
aa(lp1709
I437
aI2307
aI7500
aa(lp1710
I437
aI2307
aI7500
aa(lp1711
I437
aI2307
aI7500
aa(lp1712
I437
aI2307
aI7500
aa(lp1713
I437
aI2307
aI7500
aa(lp1714
I437
aI2307
aI7500
aa(lp1715
I438
aI2307
aI7500
aa(lp1716
I438
aI2307
aI7500
aa(lp1717
I438
aI2307
aI7500
aa(lp1718
I438
aI2307
aI7500
aa(lp1719
I438
aI2307
aI7500
aa(lp1720
I439
aI2307
aI7500
aa(lp1721
I439
aI2307
aI7500
aa(lp1722
I439
aI2307
aI7500
aa(lp1723
I439
aI2307
aI7500
aa(lp1724
I439
aI2307
aI7500
aa(lp1725
I439
aI2307
aI7500
aa(lp1726
I440
aI2307
aI7500
aa(lp1727
I440
aI2307
aI7500
aa(lp1728
I440
aI2307
aI7500
aa(lp1729
I440
aI2307
aI7500
aa(lp1730
I440
aI2307
aI7500
aa(lp1731
I440
aI2307
aI7500
aa(lp1732
I441
aI2307
aI7500
aa(lp1733
I441
aI2307
aI7500
aa(lp1734
I441
aI2307
aI7500
aa(lp1735
I441
aI2307
aI7500
aa(lp1736
I441
aI2307
aI7500
aa(lp1737
I442
aI2307
aI7500
aa(lp1738
I442
aI2307
aI7500
aa(lp1739
I442
aI2307
aI7500
aa(lp1740
I442
aI2307
aI7500
aa(lp1741
I442
aI2307
aI7500
aa(lp1742
I442
aI2307
aI7500
aa(lp1743
I443
aI2307
aI7500
aa(lp1744
I443
aI2307
aI7500
aa(lp1745
I443
aI2307
aI7500
aa(lp1746
I443
aI2307
aI7500
aa(lp1747
I443
aI2307
aI7500
aa(lp1748
I444
aI2307
aI7500
aa(lp1749
I444
aI2307
aI7500
aa(lp1750
I444
aI2307
aI7500
aa(lp1751
I444
aI2307
aI7500
aa(lp1752
I444
aI2307
aI7500
aa(lp1753
I444
aI2307
aI7500
aa(lp1754
I445
aI2307
aI7500
aa(lp1755
I445
aI2307
aI7500
aa(lp1756
I445
aI2307
aI7500
aa(lp1757
I445
aI2307
aI7500
aa(lp1758
I445
aI2307
aI7500
aa(lp1759
I445
aI2307
aI7500
aa(lp1760
I446
aI2307
aI7500
aa(lp1761
I446
aI2307
aI7500
aa(lp1762
I446
aI2307
aI7500
aa(lp1763
I446
aI2307
aI7500
aa(lp1764
I446
aI2307
aI7500
aa(lp1765
I446
aI2307
aI7500
aa(lp1766
I447
aI2307
aI7500
aa(lp1767
I447
aI2307
aI7500
aa(lp1768
I447
aI2307
aI7500
aa(lp1769
I447
aI2307
aI7500
aa(lp1770
I447
aI2307
aI7500
aa(lp1771
I447
aI2307
aI7500
aa(lp1772
I448
aI2307
aI7500
aa(lp1773
I448
aI2307
aI7500
aa(lp1774
I448
aI2307
aI7500
aa(lp1775
I448
aI2307
aI7500
aa(lp1776
I448
aI2307
aI7500
aa(lp1777
I449
aI2307
aI7500
aa(lp1778
I449
aI2307
aI7500
aa(lp1779
I449
aI2307
aI7500
aa(lp1780
I449
aI2307
aI7500
aa(lp1781
I449
aI2307
aI7500
aa(lp1782
I449
aI2307
aI7500
aa(lp1783
I450
aI2307
aI7500
aa(lp1784
I450
aI2307
aI7500
aa(lp1785
I450
aI2307
aI7500
aa(lp1786
I450
aI2307
aI7500
aa(lp1787
I450
aI2307
aI7500
aa(lp1788
I451
aI2307
aI7500
aa(lp1789
I451
aI2307
aI7500
aa(lp1790
I451
aI2307
aI7500
aa(lp1791
I451
aI2307
aI7500
aa(lp1792
I451
aI2307
aI7500
aa(lp1793
I451
aI2307
aI7500
aa(lp1794
I452
aI2307
aI7500
aa(lp1795
I452
aI2307
aI7500
aa(lp1796
I452
aI2307
aI7500
aa(lp1797
I452
aI2307
aI7500
aa(lp1798
I452
aI2307
aI7500
aa(lp1799
I453
aI2307
aI7500
aa(lp1800
I453
aI2307
aI7500
aa(lp1801
I453
aI2307
aI7500
aa(lp1802
I453
aI2307
aI7500
aa(lp1803
I453
aI2307
aI7500
aa(lp1804
I453
aI2307
aI7500
aa(lp1805
I454
aI2307
aI7500
aa(lp1806
I454
aI2307
aI7500
aa(lp1807
I454
aI2307
aI7500
aa(lp1808
I454
aI2307
aI7500
aa(lp1809
I454
aI2307
aI7500
aa(lp1810
I454
aI2307
aI7500
aa(lp1811
I455
aI2307
aI7500
aa(lp1812
I455
aI2307
aI7500
aa(lp1813
I455
aI2307
aI7500
aa(lp1814
I455
aI2307
aI7500
aa(lp1815
I455
aI2307
aI7500
aa(lp1816
I455
aI2307
aI7500
aa(lp1817
I456
aI2307
aI7500
aa(lp1818
I456
aI2307
aI7500
aa(lp1819
I456
aI2307
aI7500
aa(lp1820
I456
aI2307
aI7500
aa(lp1821
I456
aI2307
aI7500
aa(lp1822
I456
aI2307
aI7500
aa(lp1823
I457
aI2307
aI7500
aa(lp1824
I457
aI2307
aI7500
aa(lp1825
I457
aI2307
aI7500
aa(lp1826
I457
aI2307
aI7500
aa(lp1827
I457
aI2307
aI7500
aa(lp1828
I458
aI2307
aI7500
aa(lp1829
I458
aI2307
aI7500
aa(lp1830
I458
aI2307
aI7500
aa(lp1831
I458
aI2307
aI7500
aa(lp1832
I458
aI2307
aI7500
aa(lp1833
I458
aI2307
aI7500
aa(lp1834
I459
aI2307
aI7500
aa(lp1835
I459
aI2307
aI7500
aa(lp1836
I459
aI2307
aI7500
aa(lp1837
I459
aI2307
aI7500
aa(lp1838
I459
aI2307
aI7500
aa(lp1839
I460
aI2307
aI7500
aa(lp1840
I460
aI2307
aI7500
aa(lp1841
I460
aI2307
aI7500
aa(lp1842
I460
aI2307
aI7500
aa(lp1843
I460
aI2307
aI7500
aa(lp1844
I460
aI2307
aI7500
aa(lp1845
I461
aI2307
aI7500
aa(lp1846
I461
aI2307
aI7500
aa(lp1847
I461
aI2307
aI7500
aa(lp1848
I461
aI2307
aI7500
aa(lp1849
I461
aI2307
aI7500
aa(lp1850
I461
aI2307
aI7500
aa(lp1851
I462
aI2307
aI7500
aa(lp1852
I462
aI2307
aI7500
aa(lp1853
I462
aI2307
aI7500
aa(lp1854
I462
aI2307
aI7500
aa(lp1855
I462
aI2307
aI7500
aa(lp1856
I463
aI2307
aI7500
aa(lp1857
I463
aI2307
aI7500
aa(lp1858
I463
aI2307
aI7500
aa(lp1859
I463
aI2307
aI7500
aa(lp1860
I463
aI2307
aI7500
aa(lp1861
I463
aI2307
aI7500
aa(lp1862
I463
aI2307
aI7500
aa(lp1863
I464
aI2307
aI7500
aa(lp1864
I464
aI2307
aI7500
aa(lp1865
I464
aI2307
aI7500
aa(lp1866
I464
aI2307
aI7500
aa(lp1867
I464
aI2307
aI7500
aa(lp1868
I465
aI2307
aI7500
aa(lp1869
I465
aI2307
aI7500
aa(lp1870
I465
aI2307
aI7500
aa(lp1871
I465
aI2307
aI7500
aa(lp1872
I465
aI2307
aI7500
aa(lp1873
I465
aI2307
aI7500
aa(lp1874
I466
aI2307
aI7500
aa(lp1875
I466
aI2307
aI7500
aa(lp1876
I466
aI2307
aI7500
aa(lp1877
I466
aI2307
aI7500
aa(lp1878
I466
aI2307
aI7500
aa(lp1879
I466
aI2307
aI7500
aa(lp1880
I467
aI2307
aI7500
aa(lp1881
I467
aI2307
aI7500
aa(lp1882
I467
aI2307
aI7500
aa(lp1883
I467
aI2307
aI7500
aa(lp1884
I467
aI2307
aI7500
aa(lp1885
I468
aI2307
aI7500
aa(lp1886
I468
aI2307
aI7500
aa(lp1887
I468
aI2307
aI7500
aa(lp1888
I468
aI2307
aI7500
aa(lp1889
I468
aI2307
aI7500
aa(lp1890
I468
aI2307
aI7500
aa(lp1891
I469
aI2307
aI7500
aa(lp1892
I469
aI2307
aI7500
aa(lp1893
I469
aI2307
aI7500
aa(lp1894
I469
aI2307
aI7500
aa(lp1895
I469
aI2307
aI7500
aa(lp1896
I470
aI2307
aI7500
aa(lp1897
I470
aI2307
aI7500
aa(lp1898
I470
aI2307
aI7500
aa(lp1899
I470
aI2307
aI7500
aa(lp1900
I470
aI2307
aI7500
aa(lp1901
I470
aI2307
aI7500
aa(lp1902
I471
aI2307
aI7500
aa(lp1903
I471
aI2307
aI7500
aa(lp1904
I471
aI2307
aI7500
aa(lp1905
I471
aI2307
aI7500
aa(lp1906
I471
aI2307
aI7500
aa(lp1907
I472
aI2307
aI7500
aa(lp1908
I472
aI2307
aI7500
aa(lp1909
I472
aI2307
aI7500
aa(lp1910
I472
aI2307
aI7500
aa(lp1911
I472
aI2307
aI7500
aa(lp1912
I472
aI2307
aI7500
aa(lp1913
I473
aI2307
aI7500
aa(lp1914
I473
aI2307
aI7500
aa(lp1915
I473
aI2307
aI7500
aa(lp1916
I473
aI2307
aI7500
aa(lp1917
I473
aI2307
aI7500
aa(lp1918
I473
aI2307
aI7500
aa(lp1919
I474
aI2307
aI7500
aa(lp1920
I474
aI2307
aI7500
aa(lp1921
I474
aI2307
aI7500
aa(lp1922
I474
aI2307
aI7500
aa(lp1923
I474
aI2307
aI7500
aa(lp1924
I474
aI2307
aI7500
aa(lp1925
I475
aI2307
aI7500
aa(lp1926
I475
aI2307
aI7500
aa(lp1927
I475
aI2307
aI7500
aa(lp1928
I475
aI2307
aI7500
aa(lp1929
I475
aI2307
aI7500
aa(lp1930
I475
aI2307
aI7500
aa(lp1931
I476
aI2307
aI7500
aa(lp1932
I476
aI2307
aI7500
aa(lp1933
I476
aI2307
aI7500
aa(lp1934
I476
aI2307
aI7500
aa(lp1935
I476
aI2307
aI7500
aa(lp1936
I476
aI2307
aI7500
aa(lp1937
I477
aI2307
aI7500
aa(lp1938
I477
aI2307
aI7500
aa(lp1939
I477
aI2307
aI7500
aa(lp1940
I477
aI2307
aI7500
aa(lp1941
I477
aI2307
aI7500
aa(lp1942
I477
aI2307
aI7500
aa(lp1943
I478
aI2307
aI7500
aa(lp1944
I478
aI2307
aI7500
aa(lp1945
I478
aI2307
aI7500
aa(lp1946
I478
aI2307
aI7500
aa(lp1947
I478
aI2307
aI7500
aa(lp1948
I479
aI2307
aI7500
aa(lp1949
I479
aI2307
aI7500
aa(lp1950
I479
aI2307
aI7500
aa(lp1951
I479
aI2307
aI7500
aa(lp1952
I479
aI2307
aI7500
aa(lp1953
I479
aI2307
aI7500
aa(lp1954
I480
aI2307
aI7500
aa(lp1955
I480
aI2307
aI7500
aa(lp1956
I480
aI2307
aI7500
aa(lp1957
I480
aI2307
aI7500
aa(lp1958
I480
aI2307
aI7500
aa(lp1959
I480
aI2307
aI7500
aa(lp1960
I481
aI2307
aI7500
aa(lp1961
I481
aI2307
aI7500
aa(lp1962
I481
aI2307
aI7500
aa(lp1963
I481
aI2307
aI7500
aa(lp1964
I481
aI2307
aI7500
aa(lp1965
I482
aI2307
aI7500
aa(lp1966
I482
aI2307
aI7500
aa(lp1967
I482
aI2307
aI7500
aa(lp1968
I482
aI2307
aI7500
aa(lp1969
I482
aI2307
aI7500
aa(lp1970
I482
aI2307
aI7500
aa(lp1971
I483
aI2307
aI7500
aa(lp1972
I483
aI2307
aI7500
aa(lp1973
I483
aI2307
aI7500
aa(lp1974
I483
aI2307
aI7500
aa(lp1975
I483
aI2307
aI7500
aa(lp1976
I483
aI2307
aI7500
aa(lp1977
I484
aI2307
aI7500
aa(lp1978
I484
aI2307
aI7500
aa(lp1979
I484
aI2307
aI7500
aa(lp1980
I484
aI2307
aI7500
aa(lp1981
I484
aI2307
aI7500
aa(lp1982
I485
aI2307
aI7500
aa(lp1983
I485
aI2307
aI7500
aa(lp1984
I485
aI2307
aI7500
aa(lp1985
I486
aI2307
aI7500
aa(lp1986
I486
aI2307
aI7500
aa(lp1987
I486
aI2307
aI7500
aa(lp1988
I486
aI2307
aI7500
aa(lp1989
I487
aI2307
aI7500
aa(lp1990
I487
aI2307
aI7500
aa(lp1991
I487
aI2307
aI7500
aa(lp1992
I487
aI2307
aI7500
aa(lp1993
I487
aI2307
aI7500
aa(lp1994
I487
aI2307
aI7500
aa(lp1995
I488
aI2307
aI7500
aa(lp1996
I488
aI2307
aI7500
aa(lp1997
I488
aI2307
aI7500
aa(lp1998
I488
aI2307
aI7500
aa(lp1999
I488
aI2307
aI7500
aa(lp2000
I489
aI2307
aI7500
aa(lp2001
I489
aI2307
aI7500
aa(lp2002
I489
aI2307
aI7500
aa(lp2003
I489
aI2307
aI7500
aa(lp2004
I489
aI2307
aI7500
aa(lp2005
I489
aI2307
aI7500
aa(lp2006
I490
aI2307
aI7500
aa(lp2007
I490
aI2307
aI7500
aa(lp2008
I490
aI2307
aI7500
aa(lp2009
I490
aI2307
aI7500
aa(lp2010
I490
aI2307
aI7500
aa(lp2011
I491
aI2307
aI7500
aa(lp2012
I491
aI2307
aI7500
aa(lp2013
I491
aI2307
aI7500
aa(lp2014
I491
aI2307
aI7500
aa(lp2015
I491
aI2307
aI7500
aa(lp2016
I491
aI2307
aI7500
aa(lp2017
I492
aI2307
aI7500
aa(lp2018
I492
aI2307
aI7500
aa(lp2019
I492
aI2307
aI7500
aa(lp2020
I492
aI2307
aI7500
aa(lp2021
I492
aI2307
aI7500
aa(lp2022
I493
aI2307
aI7500
aa(lp2023
I493
aI2307
aI7500
aa(lp2024
I493
aI2307
aI7500
aa(lp2025
I493
aI2307
aI7500
aa(lp2026
I493
aI2307
aI7500
aa(lp2027
I493
aI2307
aI7500
aa(lp2028
I494
aI2307
aI7500
aa(lp2029
I494
aI2307
aI7500
aa(lp2030
I494
aI2307
aI7500
aa(lp2031
I494
aI2307
aI7500
aa(lp2032
I494
aI2307
aI7500
aa(lp2033
I494
aI2307
aI7500
aa(lp2034
I495
aI2307
aI7500
aa(lp2035
I495
aI2307
aI7500
aa(lp2036
I495
aI2307
aI7500
aa(lp2037
I495
aI2307
aI7500
aa(lp2038
I495
aI2307
aI7500
aa(lp2039
I496
aI2307
aI7500
aa(lp2040
I496
aI2307
aI7500
aa(lp2041
I496
aI2307
aI7500
aa(lp2042
I496
aI2307
aI7500
aa(lp2043
I496
aI2307
aI7500
aa(lp2044
I496
aI2307
aI7500
aa(lp2045
I497
aI2307
aI7500
aa(lp2046
I497
aI2307
aI7500
aa(lp2047
I497
aI2307
aI7500
aa(lp2048
I497
aI2307
aI7500
aa(lp2049
I497
aI2307
aI7500
aa(lp2050
I497
aI2307
aI7500
aa(lp2051
I498
aI2307
aI7500
aa(lp2052
I498
aI2307
aI7500
aa(lp2053
I498
aI2307
aI7500
aa(lp2054
I498
aI2307
aI7500
aa(lp2055
I498
aI2307
aI7500
aa(lp2056
I499
aI2307
aI7500
aa(lp2057
I499
aI2307
aI7500
aa(lp2058
I499
aI2307
aI7500
aa(lp2059
I499
aI2307
aI7500
aa(lp2060
I499
aI2307
aI7500
aa(lp2061
I499
aI2307
aI7500
aa(lp2062
I500
aI2307
aI7500
aa(lp2063
I500
aI2307
aI7500
aa(lp2064
I500
aI2307
aI7500
aa(lp2065
I500
aI2307
aI7500
aa(lp2066
I500
aI2307
aI7500
aa(lp2067
I500
aI2307
aI7500
aa(lp2068
I501
aI2307
aI7500
aa(lp2069
I501
aI2307
aI7500
aa(lp2070
I501
aI2307
aI7500
aa(lp2071
I501
aI2307
aI7500
aa(lp2072
I501
aI2307
aI7500
aa(lp2073
I502
aI2307
aI7500
aa(lp2074
I502
aI2307
aI7500
aa(lp2075
I502
aI2307
aI7500
aa(lp2076
I502
aI2307
aI7500
aa(lp2077
I502
aI2307
aI7500
aa(lp2078
I502
aI2307
aI7500
aa(lp2079
I503
aI2307
aI7500
aa(lp2080
I503
aI2307
aI7500
aa(lp2081
I503
aI2307
aI7500
aa(lp2082
I503
aI2307
aI7500
aa(lp2083
I503
aI2307
aI7500
aa(lp2084
I503
aI2307
aI7500
aa(lp2085
I504
aI2307
aI7500
aa(lp2086
I504
aI2307
aI7500
aa(lp2087
I504
aI2307
aI7500
aa(lp2088
I504
aI2307
aI7500
aa(lp2089
I504
aI2307
aI7500
aa(lp2090
I505
aI2307
aI7500
aa(lp2091
I505
aI2307
aI7500
aa(lp2092
I505
aI2307
aI7500
aa(lp2093
I505
aI2307
aI7500
aa(lp2094
I505
aI2307
aI7500
aa(lp2095
I505
aI2307
aI7500
aa(lp2096
I506
aI2307
aI7500
aa(lp2097
I506
aI2307
aI7500
aa(lp2098
I506
aI2307
aI7500
aa(lp2099
I506
aI2307
aI7500
aa(lp2100
I506
aI2307
aI7500
aa(lp2101
I507
aI2307
aI7500
aa(lp2102
I507
aI2307
aI7500
aa(lp2103
I507
aI2307
aI7500
aa(lp2104
I507
aI2307
aI7500
aa(lp2105
I507
aI2307
aI7500
aa(lp2106
I507
aI2307
aI7500
aa(lp2107
I508
aI2307
aI7500
aa(lp2108
I508
aI2307
aI7500
aa(lp2109
I508
aI2307
aI7500
aa(lp2110
I508
aI2307
aI7500
aa(lp2111
I508
aI2307
aI7500
aa(lp2112
I508
aI2307
aI7500
aa(lp2113
I509
aI2307
aI7500
aa(lp2114
I509
aI2307
aI7500
aa(lp2115
I509
aI2307
aI7500
aa(lp2116
I509
aI2307
aI7500
aa(lp2117
I509
aI2307
aI7500
aa(lp2118
I510
aI2307
aI7500
aa(lp2119
I510
aI2307
aI7500
aa(lp2120
I510
aI2307
aI7500
aa(lp2121
I510
aI2307
aI7500
aa(lp2122
I510
aI2307
aI7500
aa(lp2123
I510
aI2307
aI7500
aa(lp2124
I510
aI2307
aI7500
aa(lp2125
I511
aI2307
aI7500
aa(lp2126
I511
aI2307
aI7500
aa(lp2127
I511
aI2307
aI7500
aa(lp2128
I511
aI2307
aI7500
aa(lp2129
I511
aI2307
aI7500
aa(lp2130
I511
aI2307
aI7500
aa(lp2131
I512
aI2307
aI7500
aa(lp2132
I513
aI2314
aI7500
aa(lp2133
I513
aI2314
aI7500
aa(lp2134
I514
aI2314
aI7500
aa(lp2135
I514
aI2314
aI7500
aa(lp2136
I514
aI2314
aI7500
aa(lp2137
I514
aI2314
aI7500
aa(lp2138
I514
aI2314
aI7500
aa(lp2139
I514
aI2359
aI7500
aa(lp2140
I516
aI2363
aI7500
aa(lp2141
I516
aI2363
aI7500
aa(lp2142
I516
aI2363
aI7500
aa(lp2143
I516
aI2363
aI7500
aa(lp2144
I517
aI2363
aI7500
aa(lp2145
I517
aI2363
aI7500
aa(lp2146
I518
aI2364
aI7500
aa(lp2147
I519
aI2364
aI7500
aa(lp2148
I519
aI2364
aI7500
aa(lp2149
I519
aI2364
aI7500
aa(lp2150
I519
aI2364
aI7500
aa(lp2151
I519
aI2364
aI7500
aa(lp2152
I520
aI2364
aI7500
aa(lp2153
I520
aI2364
aI7500
aa(lp2154
I520
aI2364
aI7500
aa(lp2155
I520
aI2364
aI7500
aa(lp2156
I520
aI2364
aI7500
aa(lp2157
I520
aI2364
aI7500
aa(lp2158
I521
aI2364
aI7500
aa(lp2159
I521
aI2364
aI7500
aa(lp2160
I521
aI2364
aI7500
aa(lp2161
I521
aI2364
aI7500
aa(lp2162
I521
aI2364
aI7500
aa(lp2163
I522
aI2364
aI7500
aa(lp2164
I522
aI2364
aI7500
aa(lp2165
I522
aI2364
aI7500
aa(lp2166
I522
aI2364
aI7500
aa(lp2167
I522
aI2364
aI7500
aa(lp2168
I522
aI2364
aI7500
aa(lp2169
I523
aI2364
aI7500
aa(lp2170
I523
aI2364
aI7500
aa(lp2171
I523
aI2364
aI7500
aa(lp2172
I523
aI2364
aI7500
aa(lp2173
I523
aI2364
aI7500
aa(lp2174
I523
aI2364
aI7500
aa(lp2175
I524
aI2364
aI7500
aa(lp2176
I524
aI2364
aI7500
aa(lp2177
I524
aI2364
aI7500
aa(lp2178
I524
aI2364
aI7500
aa(lp2179
I524
aI2364
aI7500
aa(lp2180
I524
aI2364
aI7500
aa(lp2181
I525
aI2364
aI7500
aa(lp2182
I525
aI2364
aI7500
aa(lp2183
I525
aI2364
aI7500
aa(lp2184
I525
aI2364
aI7500
aa(lp2185
I525
aI2364
aI7500
aa(lp2186
I526
aI2364
aI7500
aa(lp2187
I526
aI2364
aI7500
aa(lp2188
I526
aI2364
aI7500
aa(lp2189
I526
aI2364
aI7500
aa(lp2190
I526
aI2364
aI7500
aa(lp2191
I526
aI2364
aI7500
aa(lp2192
I527
aI2364
aI7500
aa(lp2193
I527
aI2364
aI7500
aa(lp2194
I527
aI2364
aI7500
aa(lp2195
I527
aI2364
aI7500
aa(lp2196
I527
aI2364
aI7500
aa(lp2197
I527
aI2364
aI7500
aa(lp2198
I528
aI2364
aI7500
aa(lp2199
I528
aI2364
aI7500
aa(lp2200
I528
aI2364
aI7500
aa(lp2201
I528
aI2364
aI7500
aa(lp2202
I528
aI2364
aI7500
aa(lp2203
I528
aI2364
aI7500
aa(lp2204
I529
aI2364
aI7500
aa(lp2205
I529
aI2364
aI7500
aa(lp2206
I529
aI2364
aI7500
aa(lp2207
I529
aI2364
aI7500
aa(lp2208
I529
aI2364
aI7500
aa(lp2209
I529
aI2364
aI7500
aa(lp2210
I530
aI2364
aI7500
aa(lp2211
I530
aI2364
aI7500
aa(lp2212
I530
aI2364
aI7500
aa(lp2213
I530
aI2364
aI7500
aa(lp2214
I530
aI2364
aI7500
aa(lp2215
I530
aI2364
aI7500
aa(lp2216
I531
aI2364
aI7500
aa(lp2217
I531
aI2364
aI7500
aa(lp2218
I531
aI2364
aI7500
aa(lp2219
I531
aI2364
aI7500
aa(lp2220
I531
aI2364
aI7500
aa(lp2221
I531
aI2364
aI7500
aa(lp2222
I531
aI2364
aI7500
aa(lp2223
I532
aI2364
aI7500
aa(lp2224
I532
aI2364
aI7500
aa(lp2225
I532
aI2364
aI7500
aa(lp2226
I533
aI2385
aI7500
aa(lp2227
I533
aI2385
aI7500
aa(lp2228
I533
aI2385
aI7500
aa(lp2229
I534
aI2385
aI7500
aa(lp2230
I534
aI2385
aI7500
aa(lp2231
I534
aI2395
aI7500
aa(lp2232
I536
aI2411
aI7500
aa(lp2233
I536
aI2411
aI7500
aa(lp2234
I536
aI2411
aI7500
aa(lp2235
I536
aI2411
aI7500
aa(lp2236
I536
aI2411
aI7500
aa(lp2237
I537
aI2411
aI7500
aa(lp2238
I537
aI2411
aI7500
aa(lp2239
I537
aI2411
aI7500
aa(lp2240
I537
aI2411
aI7500
aa(lp2241
I537
aI2411
aI7500
aa(lp2242
I537
aI2411
aI7500
aa(lp2243
I538
aI2411
aI7500
aa(lp2244
I538
aI2411
aI7500
aa(lp2245
I538
aI2411
aI7500
aa(lp2246
I538
aI2411
aI7500
aa(lp2247
I538
aI2411
aI7500
aa(lp2248
I539
aI2411
aI7500
aa(lp2249
I539
aI2411
aI7500
aa(lp2250
I539
aI2411
aI7500
aa(lp2251
I539
aI2411
aI7500
aa(lp2252
I539
aI2411
aI7500
aa(lp2253
I539
aI2411
aI7500
aa(lp2254
I539
aI2411
aI7500
aa(lp2255
I540
aI2411
aI7500
aa(lp2256
I540
aI2411
aI7500
aa(lp2257
I540
aI2412
aI7500
aa(lp2258
I541
aI2414
aI7500
aa(lp2259
I542
aI2414
aI7500
aa(lp2260
I542
aI2414
aI7500
aa(lp2261
I542
aI2414
aI7500
aa(lp2262
I542
aI2414
aI7500
aa(lp2263
I542
aI2414
aI7500
aa(lp2264
I542
aI2414
aI7500
aa(lp2265
I543
aI2414
aI7500
aa(lp2266
I543
aI2414
aI7500
aa(lp2267
I543
aI2414
aI7500
aa(lp2268
I543
aI2414
aI7500
aa(lp2269
I543
aI2414
aI7500
aa(lp2270
I543
aI2414
aI7500
aa(lp2271
I544
aI2414
aI7500
aa(lp2272
I544
aI2414
aI7500
aa(lp2273
I544
aI2414
aI7500
aa(lp2274
I544
aI2414
aI7500
aa(lp2275
I544
aI2414
aI7500
aa(lp2276
I544
aI2414
aI7500
aa(lp2277
I545
aI2414
aI7500
aa(lp2278
I545
aI2414
aI7500
aa(lp2279
I545
aI2414
aI7500
aa(lp2280
I545
aI2414
aI7500
aa(lp2281
I545
aI2414
aI7500
aa(lp2282
I546
aI2414
aI7500
aa(lp2283
I546
aI2414
aI7500
aa(lp2284
I546
aI2414
aI7500
aa(lp2285
I546
aI2414
aI7500
aa(lp2286
I546
aI2414
aI7500
aa(lp2287
I547
aI2414
aI7500
aa(lp2288
I547
aI2414
aI7500
aa(lp2289
I547
aI2414
aI7500
aa(lp2290
I547
aI2414
aI7500
aa(lp2291
I547
aI2414
aI7500
aa(lp2292
I547
aI2414
aI7500
aa(lp2293
I548
aI2414
aI7500
aa(lp2294
I548
aI2414
aI7500
aa(lp2295
I548
aI2414
aI7500
aa(lp2296
I548
aI2414
aI7500
aa(lp2297
I548
aI2414
aI7500
aa(lp2298
I548
aI2414
aI7500
aa(lp2299
I548
aI2414
aI7500
aa(lp2300
I549
aI2414
aI7500
aa(lp2301
I549
aI2414
aI7500
aa(lp2302
I549
aI2414
aI7500
aa(lp2303
I549
aI2414
aI7500
aa(lp2304
I549
aI2414
aI7500
aa(lp2305
I549
aI2414
aI7500
aa(lp2306
I550
aI2414
aI7500
aa(lp2307
I550
aI2414
aI7500
aa(lp2308
I550
aI2414
aI7500
aa(lp2309
I550
aI2414
aI7500
aa(lp2310
I550
aI2414
aI7500
aa(lp2311
I550
aI2414
aI7500
aa(lp2312
I551
aI2414
aI7500
aa(lp2313
I551
aI2414
aI7500
aa(lp2314
I551
aI2414
aI7500
aa(lp2315
I551
aI2414
aI7500
aa(lp2316
I551
aI2414
aI7500
aa(lp2317
I553
aI2425
aI7500
aa(lp2318
I553
aI2425
aI7500
aa(lp2319
I553
aI2425
aI7500
aa(lp2320
I553
aI2425
aI7500
aa(lp2321
I553
aI2425
aI7500
aa(lp2322
I554
aI2425
aI7500
aa(lp2323
I554
aI2425
aI7500
aa(lp2324
I554
aI2425
aI7500
aa(lp2325
I556
aI2438
aI7500
aa(lp2326
I556
aI2438
aI7500
aa(lp2327
I556
aI2438
aI7500
aa(lp2328
I556
aI2438
aI7500
aa(lp2329
I556
aI2438
aI7500
aa(lp2330
I556
aI2438
aI7500
aa(lp2331
I557
aI2443
aI7500
aa(lp2332
I558
aI2449
aI7500
aa(lp2333
I558
aI2449
aI7500
aa(lp2334
I559
aI2449
aI7500
aa(lp2335
I559
aI2449
aI7500
aa(lp2336
I559
aI2449
aI7500
aa(lp2337
I559
aI2449
aI7500
aa(lp2338
I559
aI2449
aI7500
aa(lp2339
I559
aI2449
aI7500
aa(lp2340
I561
aI2470
aI7500
aa(lp2341
I561
aI2470
aI7500
aa(lp2342
I561
aI2480
aI7500
aa(lp2343
I563
aI2493
aI7500
aa(lp2344
I563
aI2493
aI7500
aa(lp2345
I563
aI2493
aI7500
aa(lp2346
I563
aI2493
aI7500
aa(lp2347
I565
aI2507
aI7500
aa(lp2348
I565
aI2507
aI7500
aa(lp2349
I565
aI2507
aI7500
aa(lp2350
I567
aI2523
aI7500
aa(lp2351
I567
aI2530
aI7500
aa(lp2352
I569
aI2540
aI7500
aa(lp2353
I569
aI2540
aI7500
aa(lp2354
I569
aI2540
aI7500
aa(lp2355
I569
aI2540
aI7500
aa(lp2356
I569
aI2540
aI7500
aa(lp2357
I570
aI2540
aI7500
aa(lp2358
I570
aI2540
aI7500
aa(lp2359
I570
aI2540
aI7500
aa(lp2360
I572
aI2556
aI7500
aa(lp2361
I572
aI2556
aI7500
aa(lp2362
I572
aI2556
aI7500
aa(lp2363
I572
aI2556
aI7500
aa(lp2364
I572
aI2556
aI7500
aa(lp2365
I572
aI2556
aI7500
aa(lp2366
I573
aI2560
aI7500
aa(lp2367
I574
aI2574
aI7500
aa(lp2368
I574
aI2574
aI7500
aa(lp2369
I574
aI2574
aI7500
aa(lp2370
I574
aI2574
aI7500
aa(lp2371
I574
aI2574
aI7500
aa(lp2372
I574
aI2574
aI7500
aa(lp2373
I575
aI2574
aI7500
aa(lp2374
I575
aI2574
aI7500
aa(lp2375
I575
aI2574
aI7500
aa(lp2376
I575
aI2574
aI7500
aa(lp2377
I575
aI2574
aI7500
aa(lp2378
I575
aI2574
aI7500
aa(lp2379
I576
aI2574
aI7500
aa(lp2380
I576
aI2574
aI7500
aa(lp2381
I576
aI2574
aI7500
aa(lp2382
I576
aI2574
aI7500
aa(lp2383
I576
aI2574
aI7500
aa(lp2384
I577
aI2574
aI7500
aa(lp2385
I577
aI2574
aI7500
aa(lp2386
I577
aI2574
aI7500
aa(lp2387
I577
aI2574
aI7500
aa(lp2388
I577
aI2574
aI7500
aa(lp2389
I577
aI2574
aI7500
aa(lp2390
I578
aI2574
aI7500
aa(lp2391
I578
aI2574
aI7500
aa(lp2392
I578
aI2574
aI7500
aa(lp2393
I578
aI2574
aI7500
aa(lp2394
I578
aI2574
aI7500
aa(lp2395
I578
aI2574
aI7500
aa(lp2396
I579
aI2574
aI7500
aa(lp2397
I579
aI2574
aI7500
aa(lp2398
I579
aI2574
aI7500
aa(lp2399
I579
aI2574
aI7500
aa(lp2400
I579
aI2574
aI7500
aa(lp2401
I579
aI2574
aI7500
aa(lp2402
I580
aI2574
aI7500
aa(lp2403
I580
aI2574
aI7500
aa(lp2404
I580
aI2574
aI7500
aa(lp2405
I580
aI2574
aI7500
aa(lp2406
I580
aI2574
aI7500
aa(lp2407
I580
aI2574
aI7500
aa(lp2408
I581
aI2574
aI7500
aa(lp2409
I581
aI2574
aI7500
aa(lp2410
I581
aI2574
aI7500
aa(lp2411
I581
aI2574
aI7500
aa(lp2412
I581
aI2574
aI7500
aa(lp2413
I581
aI2574
aI7500
aa(lp2414
I582
aI2575
aI7500
aa(lp2415
I583
aI2576
aI7500
aa(lp2416
I583
aI2576
aI7500
aa(lp2417
I583
aI2576
aI7500
aa(lp2418
I583
aI2576
aI7500
aa(lp2419
I583
aI2576
aI7500
aa(lp2420
I583
aI2576
aI7500
aa(lp2421
I584
aI2576
aI7500
aa(lp2422
I584
aI2576
aI7500
aa(lp2423
I584
aI2576
aI7500
aa(lp2424
I584
aI2576
aI7500
aa(lp2425
I584
aI2576
aI7500
aa(lp2426
I584
aI2576
aI7500
aa(lp2427
I585
aI2576
aI7500
aa(lp2428
I585
aI2576
aI7500
aa(lp2429
I585
aI2576
aI7500
aa(lp2430
I585
aI2576
aI7500
aa(lp2431
I585
aI2576
aI7500
aa(lp2432
I585
aI2576
aI7500
aa(lp2433
I586
aI2576
aI7500
aa(lp2434
I586
aI2576
aI7500
aa(lp2435
I586
aI2576
aI7500
aa(lp2436
I586
aI2576
aI7500
aa(lp2437
I586
aI2576
aI7500
aa(lp2438
I586
aI2576
aI7500
aa(lp2439
I587
aI2576
aI7500
aa(lp2440
I587
aI2576
aI7500
aa(lp2441
I587
aI2576
aI7500
aa(lp2442
I587
aI2576
aI7500
aa(lp2443
I587
aI2576
aI7500
aa(lp2444
I587
aI2576
aI7500
aa(lp2445
I588
aI2576
aI7500
aa(lp2446
I588
aI2576
aI7500
aa(lp2447
I588
aI2576
aI7500
aa(lp2448
I588
aI2576
aI7500
aa(lp2449
I588
aI2576
aI7500
aa(lp2450
I588
aI2576
aI7500
aa(lp2451
I588
aI2576
aI7500
aa(lp2452
I589
aI2576
aI7500
aa(lp2453
I589
aI2576
aI7500
aa(lp2454
I589
aI2576
aI7500
aa(lp2455
I589
aI2576
aI7500
aa(lp2456
I589
aI2576
aI7500
aa(lp2457
I589
aI2576
aI7500
aa(lp2458
I590
aI2576
aI7500
aa(lp2459
I590
aI2576
aI7500
aa(lp2460
I590
aI2576
aI7500
aa(lp2461
I590
aI2576
aI7500
aa(lp2462
I590
aI2576
aI7500
aa(lp2463
I590
aI2576
aI7500
aa(lp2464
I591
aI2576
aI7500
aa(lp2465
I591
aI2576
aI7500
aa(lp2466
I591
aI2576
aI7500
aa(lp2467
I591
aI2576
aI7500
aa(lp2468
I591
aI2576
aI7500
aa(lp2469
I591
aI2576
aI7500
aa(lp2470
I591
aI2576
aI7500
aa(lp2471
I592
aI2576
aI7500
aa(lp2472
I592
aI2576
aI7500
aa(lp2473
I592
aI2576
aI7500
aa(lp2474
I592
aI2576
aI7500
aa(lp2475
I592
aI2576
aI7500
aa(lp2476
I592
aI2576
aI7500
aa(lp2477
I593
aI2576
aI7500
aa(lp2478
I593
aI2576
aI7500
aa(lp2479
I593
aI2576
aI7500
aa(lp2480
I593
aI2576
aI7500
aa(lp2481
I593
aI2576
aI7500
aa(lp2482
I593
aI2576
aI7500
aa(lp2483
I593
aI2576
aI7500
aa(lp2484
I594
aI2576
aI7500
aa(lp2485
I594
aI2576
aI7500
aa(lp2486
I594
aI2576
aI7500
aa(lp2487
I594
aI2576
aI7500
aa(lp2488
I594
aI2576
aI7500
aa(lp2489
I594
aI2576
aI7500
aa(lp2490
I595
aI2576
aI7500
aa(lp2491
I595
aI2576
aI7500
aa(lp2492
I595
aI2576
aI7500
aa(lp2493
I595
aI2576
aI7500
aa(lp2494
I595
aI2576
aI7500
aa(lp2495
I595
aI2576
aI7500
aa(lp2496
I596
aI2576
aI7500
aa(lp2497
I596
aI2576
aI7500
aa(lp2498
I596
aI2576
aI7500
aa(lp2499
I596
aI2576
aI7500
aa(lp2500
I596
aI2576
aI7500
aa(lp2501
I596
aI2576
aI7500
aa(lp2502
I597
aI2576
aI7500
aa(lp2503
I597
aI2576
aI7500
aa(lp2504
I597
aI2576
aI7500
aa(lp2505
I597
aI2576
aI7500
aa(lp2506
I597
aI2576
aI7500
aa(lp2507
I597
aI2576
aI7500
aa(lp2508
I597
aI2576
aI7500
aa(lp2509
I598
aI2576
aI7500
aa(lp2510
I598
aI2576
aI7500
aa(lp2511
I598
aI2576
aI7500
aa(lp2512
I598
aI2576
aI7500
aa(lp2513
I598
aI2576
aI7500
aa(lp2514
I598
aI2576
aI7500
aa(lp2515
I599
aI2576
aI7500
aa(lp2516
I599
aI2576
aI7500
aa(lp2517
I599
aI2576
aI7500
aa(lp2518
I599
aI2576
aI7500
aa(lp2519
I599
aI2576
aI7500
aa(lp2520
I599
aI2576
aI7500
aa(lp2521
I600
aI2576
aI7500
aa(lp2522
I600
aI2576
aI7500
aa(lp2523
I600
aI2576
aI7500
aa(lp2524
I600
aI2576
aI7500
aa(lp2525
I600
aI2576
aI7500
aa(lp2526
I600
aI2576
aI7500
aa(lp2527
I601
aI2576
aI7500
aa(lp2528
I601
aI2576
aI7500
aa(lp2529
I601
aI2576
aI7500
aa(lp2530
I601
aI2576
aI7500
aa(lp2531
I601
aI2576
aI7500
aa(lp2532
I601
aI2576
aI7500
aa(lp2533
I602
aI2576
aI7500
aa(lp2534
I602
aI2576
aI7500
aa(lp2535
I602
aI2576
aI7500
aa(lp2536
I602
aI2576
aI7500
aa(lp2537
I602
aI2576
aI7500
aa(lp2538
I602
aI2576
aI7500
aa(lp2539
I602
aI2576
aI7500
aa(lp2540
I603
aI2576
aI7500
aa(lp2541
I603
aI2576
aI7500
aa(lp2542
I603
aI2576
aI7500
aa(lp2543
I603
aI2576
aI7500
aa(lp2544
I603
aI2576
aI7500
aa(lp2545
I603
aI2576
aI7500
aa(lp2546
I604
aI2576
aI7500
aa(lp2547
I604
aI2576
aI7500
aa(lp2548
I604
aI2576
aI7500
aa(lp2549
I604
aI2576
aI7500
aa(lp2550
I604
aI2576
aI7500
aa(lp2551
I605
aI2576
aI7500
aa(lp2552
I605
aI2576
aI7500
aa(lp2553
I605
aI2576
aI7500
aa(lp2554
I605
aI2576
aI7500
aa(lp2555
I605
aI2576
aI7500
aa(lp2556
I605
aI2576
aI7500
aa(lp2557
I605
aI2576
aI7500
aa(lp2558
I606
aI2576
aI7500
aa(lp2559
I606
aI2576
aI7500
aa(lp2560
I606
aI2576
aI7500
aa(lp2561
I606
aI2576
aI7500
aa(lp2562
I606
aI2576
aI7500
aa(lp2563
I606
aI2576
aI7500
aa(lp2564
I607
aI2576
aI7500
aa(lp2565
I607
aI2576
aI7500
aa(lp2566
I607
aI2576
aI7500
aa(lp2567
I607
aI2576
aI7500
aa(lp2568
I607
aI2576
aI7500
aa(lp2569
I607
aI2576
aI7500
aa(lp2570
I608
aI2576
aI7500
aa(lp2571
I608
aI2576
aI7500
aa(lp2572
I608
aI2576
aI7500
aa(lp2573
I608
aI2576
aI7500
aa(lp2574
I608
aI2576
aI7500
aa(lp2575
I608
aI2576
aI7500
aa(lp2576
I609
aI2579
aI7500
aa(lp2577
I610
aI2593
aI7500
aa(lp2578
I610
aI2593
aI7500
aa(lp2579
I611
aI2593
aI7500
aa(lp2580
I611
aI2593
aI7500
aa(lp2581
I611
aI2616
aI7500
aa(lp2582
I612
aI2684
aI7500
aa(lp2583
I614
aI2701
aI7500
aa(lp2584
I616
aI2716
aI7500
aa(lp2585
I618
aI2732
aI7500
aa(lp2586
I620
aI2749
aI7500
aa(lp2587
I622
aI2776
aI7500
aa(lp2588
I624
aI2783
aI7500
aa(lp2589
I626
aI2794
aI7500
aa(lp2590
I628
aI2813
aI7500
aa(lp2591
I630
aI2842
aI7500
aa(lp2592
I632
aI2865
aI7500
aa(lp2593
I632
aI2865
aI7500
aa(lp2594
I632
aI2865
aI7500
aa(lp2595
I632
aI2865
aI7500
aa(lp2596
I632
aI2865
aI7500
aa(lp2597
I633
aI2865
aI7500
aa(lp2598
I633
aI2865
aI7500
aa(lp2599
I633
aI2865
aI7500
aa(lp2600
I633
aI2865
aI7500
aa(lp2601
I633
aI2865
aI7500
aa(lp2602
I633
aI2865
aI7500
aa(lp2603
I634
aI2865
aI7500
aa(lp2604
I634
aI2865
aI7500
aa(lp2605
I634
aI2865
aI7500
aa(lp2606
I634
aI2920
aI7500
aa(lp2607
I636
aI2929
aI7500
aa(lp2608
I636
aI2929
aI7500
aa(lp2609
I636
aI2939
aI7500
aa(lp2610
I638
aI2963
aI7500
aa(lp2611
I638
aI2963
aI7500
aa(lp2612
I638
aI2963
aI7500
aa(lp2613
I639
aI2963
aI7500
aa(lp2614
I639
aI2963
aI7500
aa(lp2615
I639
aI2963
aI7500
aa(lp2616
I639
aI2963
aI7500
aa(lp2617
I639
aI2964
aI7500
aa(lp2618
I641
aI2964
aI7500
aa(lp2619
I641
aI2964
aI7500
aa(lp2620
I641
aI2964
aI7500
aa(lp2621
I641
aI2964
aI7500
aa(lp2622
I642
aI2964
aI7500
aa(lp2623
I642
aI2964
aI7500
aa(lp2624
I642
aI2964
aI7500
aa(lp2625
I642
aI2964
aI7500
aa(lp2626
I642
aI2964
aI7500
aa(lp2627
I642
aI2964
aI7500
aa(lp2628
I643
aI2964
aI7500
aa(lp2629
I643
aI2964
aI7500
aa(lp2630
I643
aI2964
aI7500
aa(lp2631
I643
aI2964
aI7500
aa(lp2632
I643
aI2964
aI7500
aa(lp2633
I643
aI2964
aI7500
aa(lp2634
I644
aI2964
aI7500
aa(lp2635
I644
aI2964
aI7500
aa(lp2636
I644
aI2964
aI7500
aa(lp2637
I644
aI2964
aI7500
aa(lp2638
I644
aI2964
aI7500
aa(lp2639
I644
aI2964
aI7500
aa(lp2640
I645
aI2964
aI7500
aa(lp2641
I645
aI2964
aI7500
aa(lp2642
I645
aI2964
aI7500
aa(lp2643
I645
aI2964
aI7500
aa(lp2644
I645
aI2964
aI7500
aa(lp2645
I646
aI2964
aI7500
aa(lp2646
I646
aI2964
aI7500
aa(lp2647
I646
aI2964
aI7500
aa(lp2648
I646
aI2964
aI7500
aa(lp2649
I646
aI2964
aI7500
aa(lp2650
I647
aI2964
aI7500
aa(lp2651
I647
aI2964
aI7500
aa(lp2652
I647
aI2964
aI7500
aa(lp2653
I647
aI2964
aI7500
aa(lp2654
I647
aI2964
aI7500
aa(lp2655
I647
aI2964
aI7500
aa(lp2656
I647
aI2964
aI7500
aa(lp2657
I648
aI2964
aI7500
aa(lp2658
I648
aI2964
aI7500
aa(lp2659
I648
aI2964
aI7500
aa(lp2660
I648
aI2964
aI7500
aa(lp2661
I648
aI2964
aI7500
aa(lp2662
I648
aI2964
aI7500
aa(lp2663
I649
aI2964
aI7500
aa(lp2664
I649
aI2964
aI7500
aa(lp2665
I649
aI2964
aI7500
aa(lp2666
I649
aI2964
aI7500
aa(lp2667
I649
aI2964
aI7500
aa(lp2668
I649
aI2969
aI7500
aa(lp2669
I651
aI2969
aI7500
aa(lp2670
I651
aI2969
aI7500
aa(lp2671
I651
aI2969
aI7500
aa(lp2672
I651
aI2969
aI7500
aa(lp2673
I652
aI2969
aI7500
aa(lp2674
I652
aI2969
aI7500
aa(lp2675
I652
aI2969
aI7500
aa(lp2676
I652
aI2970
aI7500
aa(lp2677
I654
aI2973
aI7500
aa(lp2678
I654
aI2973
aI7500
aa(lp2679
I654
aI2973
aI7500
aa(lp2680
I654
aI2973
aI7500
aa(lp2681
I654
aI2973
aI7500
aa(lp2682
I654
aI2973
aI7500
aa(lp2683
I655
aI2973
aI7500
aa(lp2684
I655
aI2973
aI7500
aa(lp2685
I655
aI2973
aI7500
aa(lp2686
I656
aI2980
aI7500
aa(lp2687
I658
aI2991
aI7500
aa(lp2688
I658
aI2991
aI7500
aa(lp2689
I658
aI2991
aI7500
aa(lp2690
I658
aI2991
aI7500
aa(lp2691
I658
aI2991
aI7500
aa(lp2692
I659
aI2991
aI7500
aa(lp2693
I659
aI2991
aI7500
aa(lp2694
I659
aI2991
aI7500
aa(lp2695
I659
aI2991
aI7500
aa(lp2696
I659
aI2991
aI7500
aa(lp2697
I659
aI3005
aI7500
aa(lp2698
I661
aI3010
aI7500
aa(lp2699
I661
aI3010
aI7500
aa(lp2700
I661
aI3010
aI7500
aa(lp2701
I662
aI3010
aI7500
aa(lp2702
I662
aI3010
aI7500
aa(lp2703
I662
aI3010
aI7500
aa(lp2704
I662
aI3010
aI7500
aa(lp2705
I662
aI3012
aI7500
aa(lp2706
I663
aI3027
aI7500
aa(lp2707
I664
aI3027
aI7500
aa(lp2708
I664
aI3027
aI7500
aa(lp2709
I664
aI3027
aI7500
aa(lp2710
I664
aI3027
aI7500
aa(lp2711
I664
aI3027
aI7500
aa(lp2712
I664
aI3038
aI7500
aa(lp2713
I666
aI3048
aI7500
aa(lp2714
I666
aI3048
aI7500
aa(lp2715
I666
aI3048
aI7500
aa(lp2716
I667
aI3048
aI7500
aa(lp2717
I667
aI3048
aI7500
aa(lp2718
I667
aI3048
aI7500
aa(lp2719
I667
aI3048
aI7500
aa(lp2720
I667
aI3048
aI7500
aa(lp2721
I667
aI3048
aI7500
aa(lp2722
I669
aI3070
aI7500
aa(lp2723
I671
aI3090
aI7500
aa(lp2724
I673
aI3101
aI7500
aa(lp2725
I675
aI3111
aI7500
aa(lp2726
I675
aI3111
aI7500
aa(lp2727
I675
aI3111
aI7500
aa(lp2728
I675
aI3111
aI7500
aa(lp2729
I675
aI3111
aI7500
aa(lp2730
I675
aI3111
aI7500
aa(lp2731
I676
aI3118
aI7500
aa(lp2732
I677
aI3130
aI7500
aa(lp2733
I678
aI3130
aI7500
aa(lp2734
I678
aI3130
aI7500
aa(lp2735
I678
aI3130
aI7500
aa(lp2736
I678
aI3130
aI7500
aa(lp2737
I678
aI3130
aI7500
aa(lp2738
I678
aI3130
aI7500
aa(lp2739
I679
aI3130
aI7500
aa(lp2740
I679
aI3130
aI7500
aa(lp2741
I679
aI3130
aI7500
aa(lp2742
I679
aI3130
aI7500
aa(lp2743
I679
aI3130
aI7500
aa(lp2744
I679
aI3130
aI7500
aa(lp2745
I680
aI3130
aI7500
aa(lp2746
I680
aI3156
aI7500
aa(lp2747
I682
aI3178
aI7500
aa(lp2748
I683
aI3181
aI7500
aa(lp2749
I685
aI3201
aI7500
aa(lp2750
I685
aI3201
aI7500
aa(lp2751
I685
aI3201
aI7500
aa(lp2752
I687
aI3216
aI7500
aa(lp2753
I687
aI3216
aI7500
aa(lp2754
I687
aI3216
aI7500
aa(lp2755
I688
aI3216
aI7500
aa(lp2756
I688
aI3216
aI7500
aa(lp2757
I688
aI3216
aI7500
aa(lp2758
I688
aI3216
aI7500
aa(lp2759
I688
aI3216
aI7500
aa(lp2760
I690
aI3217
aI7500
aa(lp2761
I690
aI3217
aI7500
aa(lp2762
I690
aI3217
aI7500
aa(lp2763
I691
aI3217
aI7500
aa(lp2764
I691
aI3217
aI7500
aa(lp2765
I691
aI3217
aI7500
aa(lp2766
I691
aI3217
aI7500
aa(lp2767
I691
aI3217
aI7500
aa(lp2768
I691
aI3217
aI7500
aa(lp2769
I692
aI3217
aI7500
aa(lp2770
I692
aI3217
aI7500
aa(lp2771
I692
aI3217
aI7500
aa(lp2772
I692
aI3217
aI7500
aa(lp2773
I692
aI3217
aI7500
aa(lp2774
I693
aI3217
aI7500
aa(lp2775
I693
aI3217
aI7500
aa(lp2776
I693
aI3217
aI7500
aa(lp2777
I693
aI3217
aI7500
aa(lp2778
I693
aI3217
aI7500
aa(lp2779
I693
aI3217
aI7500
aa(lp2780
I694
aI3217
aI7500
aa(lp2781
I694
aI3217
aI7500
aa(lp2782
I694
aI3217
aI7500
aa(lp2783
I694
aI3217
aI7500
aa(lp2784
I694
aI3217
aI7500
aa(lp2785
I694
aI3217
aI7500
aa(lp2786
I695
aI3217
aI7500
aa(lp2787
I695
aI3217
aI7500
aa(lp2788
I695
aI3217
aI7500
aa(lp2789
I695
aI3217
aI7500
aa(lp2790
I695
aI3217
aI7500
aa(lp2791
I695
aI3217
aI7500
aa(lp2792
I696
aI3217
aI7500
aa(lp2793
I696
aI3217
aI7500
aa(lp2794
I697
aI3222
aI7500
aa(lp2795
I697
aI3222
aI7500
aa(lp2796
I697
aI3222
aI7500
aa(lp2797
I697
aI3222
aI7500
aa(lp2798
I697
aI3222
aI7500
aa(lp2799
I698
aI3222
aI7500
aa(lp2800
I698
aI3222
aI7500
aa(lp2801
I698
aI3222
aI7500
aa(lp2802
I698
aI3222
aI7500
aa(lp2803
I698
aI3222
aI7500
aa(lp2804
I698
aI3223
aI7500
aa(lp2805
I700
aI3223
aI7500
aa(lp2806
I700
aI3223
aI7500
aa(lp2807
I700
aI3223
aI7500
aa(lp2808
I700
aI3223
aI7500
aa(lp2809
I700
aI3223
aI7500
aa(lp2810
I701
aI3223
aI7500
aa(lp2811
I701
aI3223
aI7500
aa(lp2812
I701
aI3223
aI7500
aa(lp2813
I701
aI3223
aI7500
aa(lp2814
I701
aI3223
aI7500
aa(lp2815
I701
aI3223
aI7500
aa(lp2816
I702
aI3223
aI7500
aa(lp2817
I702
aI3223
aI7500
aa(lp2818
I702
aI3223
aI7500
aa(lp2819
I702
aI3223
aI7500
aa(lp2820
I702
aI3223
aI7500
aa(lp2821
I702
aI3223
aI7500
aa(lp2822
I703
aI3223
aI7500
aa(lp2823
I703
aI3223
aI7500
aa(lp2824
I703
aI3223
aI7500
aa(lp2825
I703
aI3223
aI7500
aa(lp2826
I703
aI3223
aI7500
aa(lp2827
I704
aI3223
aI7500
aa(lp2828
I704
aI3223
aI7500
aa(lp2829
I704
aI3223
aI7500
aa(lp2830
I704
aI3223
aI7500
aa(lp2831
I704
aI3223
aI7500
aa(lp2832
I704
aI3223
aI7500
aa(lp2833
I705
aI3223
aI7500
aa(lp2834
I705
aI3223
aI7500
aa(lp2835
I705
aI3223
aI7500
aa(lp2836
I705
aI3223
aI7500
aa(lp2837
I705
aI3223
aI7500
aa(lp2838
I705
aI3223
aI7500
aa(lp2839
I706
aI3223
aI7500
aa(lp2840
I706
aI3223
aI7500
aa(lp2841
I706
aI3223
aI7500
aa(lp2842
I706
aI3223
aI7500
aa(lp2843
I706
aI3223
aI7500
aa(lp2844
I706
aI3223
aI7500
aa(lp2845
I707
aI3223
aI7500
aa(lp2846
I707
aI3223
aI7500
aa(lp2847
I707
aI3223
aI7500
aa(lp2848
I707
aI3223
aI7500
aa(lp2849
I707
aI3223
aI7500
aa(lp2850
I707
aI3223
aI7500
aa(lp2851
I708
aI3223
aI7500
aa(lp2852
I708
aI3223
aI7500
aa(lp2853
I708
aI3223
aI7500
aa(lp2854
I708
aI3223
aI7500
aa(lp2855
I708
aI3223
aI7500
aa(lp2856
I708
aI3223
aI7500
aa(lp2857
I709
aI3223
aI7500
aa(lp2858
I709
aI3223
aI7500
aa(lp2859
I709
aI3223
aI7500
aa(lp2860
I709
aI3223
aI7500
aa(lp2861
I709
aI3223
aI7500
aa(lp2862
I709
aI3223
aI7500
aa(lp2863
I709
aI3223
aI7500
aa(lp2864
I710
aI3223
aI7500
aa(lp2865
I710
aI3223
aI7500
aa(lp2866
I710
aI3223
aI7500
aa(lp2867
I710
aI3223
aI7500
aa(lp2868
I710
aI3223
aI7500
aa(lp2869
I710
aI3223
aI7500
aa(lp2870
I711
aI3223
aI7500
aa(lp2871
I711
aI3223
aI7500
aa(lp2872
I711
aI3223
aI7500
aa(lp2873
I711
aI3223
aI7500
aa(lp2874
I711
aI3223
aI7500
aa(lp2875
I711
aI3223
aI7500
aa(lp2876
I712
aI3223
aI7500
aa(lp2877
I712
aI3223
aI7500
aa(lp2878
I712
aI3223
aI7500
aa(lp2879
I712
aI3223
aI7500
aa(lp2880
I712
aI3223
aI7500
aa(lp2881
I713
aI3223
aI7500
aa(lp2882
I713
aI3223
aI7500
aa(lp2883
I713
aI3223
aI7500
aa(lp2884
I713
aI3223
aI7500
aa(lp2885
I713
aI3223
aI7500
aa(lp2886
I713
aI3223
aI7500
aa(lp2887
I714
aI3223
aI7500
aa(lp2888
I714
aI3223
aI7500
aa(lp2889
I714
aI3223
aI7500
aa(lp2890
I714
aI3223
aI7500
aa(lp2891
I714
aI3223
aI7500
aa(lp2892
I715
aI3223
aI7500
aa(lp2893
I715
aI3223
aI7500
aa(lp2894
I715
aI3223
aI7500
aa(lp2895
I715
aI3223
aI7500
aa(lp2896
I715
aI3223
aI7500
aa(lp2897
I716
aI3223
aI7500
aa(lp2898
I716
aI3223
aI7500
aa(lp2899
I716
aI3223
aI7500
aa(lp2900
I716
aI3223
aI7500
aa(lp2901
I716
aI3223
aI7500
aa(lp2902
I716
aI3223
aI7500
aa(lp2903
I717
aI3223
aI7500
aa(lp2904
I717
aI3223
aI7500
aa(lp2905
I717
aI3223
aI7500
aa(lp2906
I717
aI3223
aI7500
aa(lp2907
I717
aI3223
aI7500
aa(lp2908
I717
aI3223
aI7500
aa(lp2909
I718
aI3223
aI7500
aa(lp2910
I718
aI3223
aI7500
aa(lp2911
I718
aI3223
aI7500
aa(lp2912
I718
aI3223
aI7500
aa(lp2913
I718
aI3223
aI7500
aa(lp2914
I718
aI3223
aI7500
aa(lp2915
I719
aI3223
aI7500
aa(lp2916
I719
aI3223
aI7500
aa(lp2917
I719
aI3223
aI7500
aa(lp2918
I719
aI3223
aI7500
aa(lp2919
I719
aI3223
aI7500
aa(lp2920
I719
aI3223
aI7500
aa(lp2921
I720
aI3223
aI7500
aa(lp2922
I720
aI3223
aI7500
aa(lp2923
I720
aI3223
aI7500
aa(lp2924
I720
aI3223
aI7500
aa(lp2925
I720
aI3223
aI7500
aa(lp2926
I720
aI3223
aI7500
aa(lp2927
I721
aI3223
aI7500
aa(lp2928
I721
aI3223
aI7500
aa(lp2929
I721
aI3223
aI7500
aa(lp2930
I721
aI3223
aI7500
aa(lp2931
I721
aI3223
aI7500
aa(lp2932
I721
aI3223
aI7500
aa(lp2933
I721
aI3223
aI7500
aa(lp2934
I722
aI3223
aI7500
aa(lp2935
I722
aI3223
aI7500
aa(lp2936
I722
aI3223
aI7500
aa(lp2937
I722
aI3223
aI7500
aa(lp2938
I722
aI3223
aI7500
aa(lp2939
I722
aI3223
aI7500
aa(lp2940
I723
aI3223
aI7500
aa(lp2941
I723
aI3223
aI7500
aa(lp2942
I723
aI3223
aI7500
aa(lp2943
I723
aI3223
aI7500
aa(lp2944
I723
aI3223
aI7500
aa(lp2945
I724
aI3223
aI7500
aa(lp2946
I724
aI3223
aI7500
aa(lp2947
I724
aI3223
aI7500
aa(lp2948
I724
aI3223
aI7500
aa(lp2949
I724
aI3223
aI7500
aa(lp2950
I724
aI3223
aI7500
aa(lp2951
I725
aI3223
aI7500
aa(lp2952
I725
aI3223
aI7500
aa(lp2953
I726
aI3223
aI7500
aa(lp2954
I726
aI3223
aI7500
aa(lp2955
I726
aI3223
aI7500
aa(lp2956
I726
aI3223
aI7500
aa(lp2957
I727
aI3223
aI7500
aa(lp2958
I727
aI3223
aI7500
aa(lp2959
I727
aI3223
aI7500
aa(lp2960
I727
aI3223
aI7500
aa(lp2961
I727
aI3223
aI7500
aa(lp2962
I727
aI3223
aI7500
aa(lp2963
I728
aI3223
aI7500
aa(lp2964
I728
aI3223
aI7500
aa(lp2965
I728
aI3223
aI7500
aa(lp2966
I728
aI3223
aI7500
aa(lp2967
I728
aI3223
aI7500
aa(lp2968
I728
aI3223
aI7500
aa(lp2969
I728
aI3223
aI7500
aa(lp2970
I729
aI3228
aI7500
aa(lp2971
I730
aI3233
aI7500
aa(lp2972
I730
aI3233
aI7500
aa(lp2973
I731
aI3233
aI7500
aa(lp2974
I731
aI3233
aI7500
aa(lp2975
I731
aI3233
aI7500
aa(lp2976
I731
aI3233
aI7500
aa(lp2977
I731
aI3233
aI7500
aa(lp2978
I731
aI3233
aI7500
aa(lp2979
I732
aI3233
aI7500
aa(lp2980
I732
aI3233
aI7500
aa(lp2981
I732
aI3233
aI7500
aa(lp2982
I732
aI3233
aI7500
aa(lp2983
I732
aI3233
aI7500
aa(lp2984
I732
aI3233
aI7500
aa(lp2985
I733
aI3233
aI7500
aa(lp2986
I733
aI3233
aI7500
aa(lp2987
I733
aI3233
aI7500
aa(lp2988
I733
aI3233
aI7500
aa(lp2989
I733
aI3233
aI7500
aa(lp2990
I733
aI3233
aI7500
aa(lp2991
I734
aI3233
aI7500
aa(lp2992
I734
aI3233
aI7500
aa(lp2993
I734
aI3233
aI7500
aa(lp2994
I734
aI3233
aI7500
aa(lp2995
I734
aI3233
aI7500
aa(lp2996
I734
aI3233
aI7500
aa(lp2997
I734
aI3233
aI7500
aa(lp2998
I735
aI3233
aI7500
aa(lp2999
I735
aI3233
aI7500
aa(lp3000
I735
aI3233
aI7500
aa(lp3001
I735
aI3233
aI7500
aa(lp3002
I735
aI3233
aI7500
aa(lp3003
I735
aI3233
aI7500
aa(lp3004
I736
aI3233
aI7500
aa(lp3005
I736
aI3233
aI7500
aa(lp3006
I736
aI3233
aI7500
aa(lp3007
I736
aI3233
aI7500
aa(lp3008
I736
aI3233
aI7500
aa(lp3009
I736
aI3233
aI7500
aa(lp3010
I737
aI3233
aI7500
aa(lp3011
I737
aI3233
aI7500
aa(lp3012
I737
aI3233
aI7500
aa(lp3013
I737
aI3233
aI7500
aa(lp3014
I737
aI3233
aI7500
aa(lp3015
I737
aI3233
aI7500
aa(lp3016
I738
aI3233
aI7500
aa(lp3017
I738
aI3233
aI7500
aa(lp3018
I738
aI3233
aI7500
aa(lp3019
I738
aI3233
aI7500
aa(lp3020
I738
aI3233
aI7500
aa(lp3021
I739
aI3233
aI7500
aa(lp3022
I739
aI3233
aI7500
aa(lp3023
I739
aI3233
aI7500
aa(lp3024
I739
aI3233
aI7500
aa(lp3025
I739
aI3233
aI7500
aa(lp3026
I739
aI3233
aI7500
aa(lp3027
I740
aI3233
aI7500
aa(lp3028
I740
aI3233
aI7500
aa(lp3029
I740
aI3233
aI7500
aa(lp3030
I740
aI3233
aI7500
aa(lp3031
I740
aI3233
aI7500
aa(lp3032
I741
aI3233
aI7500
aa(lp3033
I741
aI3233
aI7500
aa(lp3034
I741
aI3233
aI7500
aa(lp3035
I741
aI3233
aI7500
aa(lp3036
I741
aI3233
aI7500
aa(lp3037
I741
aI3233
aI7500
aa(lp3038
I742
aI3233
aI7500
aa(lp3039
I742
aI3233
aI7500
aa(lp3040
I742
aI3233
aI7500
aa(lp3041
I742
aI3233
aI7500
aa(lp3042
I742
aI3233
aI7500
aa(lp3043
I742
aI3233
aI7500
aa(lp3044
I742
aI3233
aI7500
aa(lp3045
I743
aI3233
aI7500
aa(lp3046
I743
aI3233
aI7500
aa(lp3047
I743
aI3233
aI7500
aa(lp3048
I743
aI3233
aI7500
aa(lp3049
I743
aI3233
aI7500
aa(lp3050
I743
aI3233
aI7500
aa(lp3051
I744
aI3233
aI7500
aa(lp3052
I744
aI3233
aI7500
aa(lp3053
I744
aI3233
aI7500
aa(lp3054
I744
aI3233
aI7500
aa(lp3055
I744
aI3233
aI7500
aa(lp3056
I744
aI3233
aI7500
aa(lp3057
I744
aI3233
aI7500
aa(lp3058
I745
aI3233
aI7500
aa(lp3059
I745
aI3233
aI7500
aa(lp3060
I745
aI3233
aI7500
aa(lp3061
I745
aI3233
aI7500
aa(lp3062
I745
aI3233
aI7500
aa(lp3063
I745
aI3233
aI7500
aa(lp3064
I746
aI3233
aI7500
aa(lp3065
I746
aI3233
aI7500
aa(lp3066
I746
aI3233
aI7500
aa(lp3067
I746
aI3233
aI7500
aa(lp3068
I746
aI3233
aI7500
aa(lp3069
I746
aI3233
aI7500
aa(lp3070
I747
aI3233
aI7500
aa(lp3071
I747
aI3233
aI7500
aa(lp3072
I747
aI3233
aI7500
aa(lp3073
I747
aI3233
aI7500
aa(lp3074
I747
aI3233
aI7500
aa(lp3075
I747
aI3233
aI7500
aa(lp3076
I748
aI3233
aI7500
aa(lp3077
I748
aI3233
aI7500
aa(lp3078
I748
aI3233
aI7500
aa(lp3079
I748
aI3233
aI7500
aa(lp3080
I748
aI3233
aI7500
aa(lp3081
I748
aI3233
aI7500
aa(lp3082
I748
aI3233
aI7500
aa(lp3083
I749
aI3233
aI7500
aa(lp3084
I749
aI3233
aI7500
aa(lp3085
I749
aI3233
aI7500
aa(lp3086
I749
aI3233
aI7500
aa(lp3087
I749
aI3233
aI7500
aa(lp3088
I749
aI3233
aI7500
aa(lp3089
I750
aI3233
aI7500
aa(lp3090
I750
aI3233
aI7500
aa(lp3091
I750
aI3233
aI7500
aa(lp3092
I750
aI3233
aI7500
aa(lp3093
I750
aI3233
aI7500
aa(lp3094
I750
aI3233
aI7500
aa(lp3095
I751
aI3233
aI7500
aa(lp3096
I751
aI3233
aI7500
aa(lp3097
I751
aI3233
aI7500
aa(lp3098
I751
aI3233
aI7500
aa(lp3099
I751
aI3233
aI7500
aa(lp3100
I751
aI3233
aI7500
aa(lp3101
I752
aI3233
aI7500
aa(lp3102
I752
aI3233
aI7500
aa(lp3103
I752
aI3233
aI7500
aa(lp3104
I752
aI3233
aI7500
aa(lp3105
I752
aI3233
aI7500
aa(lp3106
I752
aI3233
aI7500
aa(lp3107
I753
aI3233
aI7500
aa(lp3108
I753
aI3233
aI7500
aa(lp3109
I753
aI3233
aI7500
aa(lp3110
I753
aI3233
aI7500
aa(lp3111
I753
aI3233
aI7500
aa(lp3112
I753
aI3233
aI7500
aa(lp3113
I753
aI3233
aI7500
aa(lp3114
I754
aI3233
aI7500
aa(lp3115
I754
aI3233
aI7500
aa(lp3116
I754
aI3233
aI7500
aa(lp3117
I754
aI3233
aI7500
aa(lp3118
I754
aI3233
aI7500
aa(lp3119
I755
aI3233
aI7500
aa(lp3120
I755
aI3233
aI7500
aa(lp3121
I755
aI3233
aI7500
aa(lp3122
I755
aI3233
aI7500
aa(lp3123
I755
aI3233
aI7500
aa(lp3124
I755
aI3233
aI7500
aa(lp3125
I755
aI3233
aI7500
aa(lp3126
I756
aI3233
aI7500
aa(lp3127
I756
aI3233
aI7500
aa(lp3128
I756
aI3233
aI7500
aa(lp3129
I756
aI3233
aI7500
aa(lp3130
I756
aI3233
aI7500
aa(lp3131
I757
aI3233
aI7500
aa(lp3132
I757
aI3233
aI7500
aa(lp3133
I757
aI3233
aI7500
aa(lp3134
I757
aI3233
aI7500
aa(lp3135
I757
aI3233
aI7500
aa(lp3136
I757
aI3233
aI7500
aa(lp3137
I758
aI3233
aI7500
aa(lp3138
I758
aI3233
aI7500
aa(lp3139
I758
aI3233
aI7500
aa(lp3140
I758
aI3233
aI7500
aa(lp3141
I758
aI3233
aI7500
aa(lp3142
I758
aI3233
aI7500
aa(lp3143
I758
aI3233
aI7500
aa(lp3144
I759
aI3233
aI7500
aa(lp3145
I759
aI3233
aI7500
aa(lp3146
I759
aI3233
aI7500
aa(lp3147
I759
aI3233
aI7500
aa(lp3148
I759
aI3233
aI7500
aa(lp3149
I759
aI3233
aI7500
aa(lp3150
I760
aI3233
aI7500
aa(lp3151
I760
aI3233
aI7500
aa(lp3152
I760
aI3233
aI7500
aa(lp3153
I760
aI3233
aI7500
aa(lp3154
I760
aI3233
aI7500
aa(lp3155
I760
aI3233
aI7500
aa(lp3156
I761
aI3233
aI7500
aa(lp3157
I761
aI3233
aI7500
aa(lp3158
I761
aI3233
aI7500
aa(lp3159
I761
aI3233
aI7500
aa(lp3160
I761
aI3233
aI7500
aa(lp3161
I761
aI3233
aI7500
aa(lp3162
I762
aI3233
aI7500
aa(lp3163
I762
aI3233
aI7500
aa(lp3164
I762
aI3233
aI7500
aa(lp3165
I762
aI3233
aI7500
aa(lp3166
I762
aI3233
aI7500
aa(lp3167
I763
aI3233
aI7500
aa(lp3168
I763
aI3233
aI7500
aa(lp3169
I763
aI3233
aI7500
aa(lp3170
I763
aI3233
aI7500
aa(lp3171
I763
aI3233
aI7500
aa(lp3172
I763
aI3233
aI7500
aa(lp3173
I764
aI3233
aI7500
aa(lp3174
I764
aI3233
aI7500
aa(lp3175
I764
aI3233
aI7500
aa(lp3176
I764
aI3233
aI7500
aa(lp3177
I764
aI3233
aI7500
aa(lp3178
I764
aI3233
aI7500
aa(lp3179
I765
aI3233
aI7500
aa(lp3180
I765
aI3233
aI7500
aa(lp3181
I765
aI3233
aI7500
aa(lp3182
I765
aI3233
aI7500
aa(lp3183
I765
aI3233
aI7500
aa(lp3184
I765
aI3233
aI7500
aa(lp3185
I766
aI3233
aI7500
aa(lp3186
I766
aI3233
aI7500
aa(lp3187
I766
aI3233
aI7500
aa(lp3188
I766
aI3233
aI7500
aa(lp3189
I766
aI3233
aI7500
aa(lp3190
I766
aI3233
aI7500
aa(lp3191
I766
aI3233
aI7500
aa(lp3192
I767
aI3233
aI7500
aa(lp3193
I767
aI3233
aI7500
aa(lp3194
I767
aI3233
aI7500
aa(lp3195
I767
aI3233
aI7500
aa(lp3196
I767
aI3233
aI7500
aa(lp3197
I768
aI3233
aI7500
aa(lp3198
I768
aI3233
aI7500
aa(lp3199
I768
aI3233
aI7500
aa(lp3200
I768
aI3233
aI7500
aa(lp3201
I768
aI3233
aI7500
aa(lp3202
I768
aI3233
aI7500
aa(lp3203
I768
aI3233
aI7500
aa(lp3204
I769
aI3233
aI7500
aa(lp3205
I769
aI3233
aI7500
aa(lp3206
I769
aI3233
aI7500
aa(lp3207
I769
aI3233
aI7500
aa(lp3208
I769
aI3233
aI7500
aa(lp3209
I769
aI3233
aI7500
aa(lp3210
I770
aI3233
aI7500
aa(lp3211
I770
aI3233
aI7500
aa(lp3212
I770
aI3233
aI7500
aa(lp3213
I770
aI3233
aI7500
aa(lp3214
I770
aI3233
aI7500
aa(lp3215
I770
aI3233
aI7500
aa(lp3216
I771
aI3233
aI7500
aa(lp3217
I771
aI3233
aI7500
aa(lp3218
I771
aI3233
aI7500
aa(lp3219
I771
aI3233
aI7500
aa(lp3220
I771
aI3233
aI7500
aa(lp3221
I772
aI3233
aI7500
aa(lp3222
I772
aI3233
aI7500
aa(lp3223
I772
aI3233
aI7500
aa(lp3224
I772
aI3233
aI7500
aa(lp3225
I772
aI3233
aI7500
aa(lp3226
I772
aI3233
aI7500
aa(lp3227
I773
aI3233
aI7500
aa(lp3228
I773
aI3233
aI7500
aa(lp3229
I773
aI3233
aI7500
aa(lp3230
I773
aI3233
aI7500
aa(lp3231
I773
aI3233
aI7500
aa(lp3232
I773
aI3233
aI7500
aa(lp3233
I774
aI3235
aI7500
aa(lp3234
I775
aI3244
aI7500
aa(lp3235
I777
aI3255
aI7500
aa(lp3236
I779
aI3268
aI7500
aa(lp3237
I779
aI3270
aI7500
aa(lp3238
I781
aI3283
aI7500
aa(lp3239
I783
aI3296
aI7500
aa(lp3240
I783
aI3296
aI7500
aa(lp3241
I785
aI3319
aI7500
aa(lp3242
I787
aI3340
aI7500
aa(lp3243
I789
aI3353
aI7500
aa(lp3244
I789
aI3358
aI7500
aa(lp3245
I791
aI3375
aI7500
aa(lp3246
I792
aI3392
aI7500
aa(lp3247
I793
aI3392
aI7500
aa(lp3248
I794
aI3402
aI7500
aa(lp3249
I794
aI3402
aI7500
aa(lp3250
I794
aI3402
aI7500
aa(lp3251
I795
aI3402
aI7500
aa(lp3252
I795
aI3402
aI7500
aa(lp3253
I795
aI3402
aI7500
aa(lp3254
I796
aI3415
aI7500
aa(lp3255
I797
aI3415
aI7500
aa(lp3256
I797
aI3415
aI7500
aa(lp3257
I797
aI3415
aI7500
aa(lp3258
I797
aI3415
aI7500
aa(lp3259
I797
aI3415
aI7500
aa(lp3260
I797
aI3415
aI7500
aa(lp3261
I798
aI3415
aI7500
aa(lp3262
I798
aI3415
aI7500
aa(lp3263
I798
aI3415
aI7500
aa(lp3264
I799
aI3433
aI7500
aa(lp3265
I801
aI3447
aI7500
aa(lp3266
I803
aI3454
aI7500
aa(lp3267
I803
aI3454
aI7500
aa(lp3268
I803
aI3454
aI7500
aa(lp3269
I803
aI3454
aI7500
aa(lp3270
I804
aI3454
aI7500
aa(lp3271
I804
aI3454
aI7500
aa(lp3272
I804
aI3454
aI7500
aa(lp3273
I804
aI3454
aI7500
aa(lp3274
I804
aI3454
aI7500
aa(lp3275
I804
aI3454
aI7500
aa(lp3276
I805
aI3454
aI7500
aa(lp3277
I805
aI3454
aI7500
aa(lp3278
I805
aI3454
aI7500
aa(lp3279
I805
aI3454
aI7500
aa(lp3280
I805
aI3454
aI7500
aa(lp3281
I805
aI3454
aI7500
aa(lp3282
I806
aI3454
aI7500
aa(lp3283
I806
aI3454
aI7500
aa(lp3284
I806
aI3454
aI7500
aa(lp3285
I806
aI3454
aI7500
aa(lp3286
I806
aI3454
aI7500
aa(lp3287
I806
aI3454
aI7500
aa(lp3288
I807
aI3454
aI7500
aa(lp3289
I807
aI3454
aI7500
aa(lp3290
I807
aI3454
aI7500
aa(lp3291
I807
aI3454
aI7500
aa(lp3292
I807
aI3454
aI7500
aa(lp3293
I808
aI3454
aI7500
aa(lp3294
I808
aI3454
aI7500
aa(lp3295
I808
aI3454
aI7500
aa(lp3296
I808
aI3454
aI7500
aa(lp3297
I808
aI3454
aI7500
aa(lp3298
I808
aI3454
aI7500
aa(lp3299
I809
aI3454
aI7500
aa(lp3300
I809
aI3454
aI7500
aa(lp3301
I809
aI3454
aI7500
aa(lp3302
I809
aI3454
aI7500
aa(lp3303
I809
aI3454
aI7500
aa(lp3304
I810
aI3454
aI7500
aa(lp3305
I810
aI3454
aI7500
aa(lp3306
I810
aI3454
aI7500
aa(lp3307
I810
aI3454
aI7500
aa(lp3308
I810
aI3454
aI7500
aa(lp3309
I810
aI3454
aI7500
aa(lp3310
I811
aI3454
aI7500
aa(lp3311
I811
aI3454
aI7500
aa(lp3312
I811
aI3454
aI7500
aa(lp3313
I811
aI3454
aI7500
aa(lp3314
I811
aI3454
aI7500
aa(lp3315
I812
aI3454
aI7500
aa(lp3316
I812
aI3454
aI7500
aa(lp3317
I812
aI3454
aI7500
aa(lp3318
I812
aI3454
aI7500
aa(lp3319
I812
aI3454
aI7500
aa(lp3320
I812
aI3454
aI7500
aa(lp3321
I812
aI3454
aI7500
aa(lp3322
I813
aI3454
aI7500
aa(lp3323
I813
aI3454
aI7500
aa(lp3324
I813
aI3454
aI7500
aa(lp3325
I813
aI3454
aI7500
aa(lp3326
I813
aI3454
aI7500
aa(lp3327
I814
aI3454
aI7500
aa(lp3328
I814
aI3454
aI7500
aa(lp3329
I814
aI3454
aI7500
aa(lp3330
I814
aI3454
aI7500
aa(lp3331
I814
aI3454
aI7500
aa(lp3332
I814
aI3454
aI7500
aa(lp3333
I814
aI3454
aI7500
aa(lp3334
I815
aI3454
aI7500
aa(lp3335
I815
aI3454
aI7500
aa(lp3336
I815
aI3454
aI7500
aa(lp3337
I815
aI3454
aI7500
aa(lp3338
I815
aI3454
aI7500
aa(lp3339
I815
aI3454
aI7500
aa(lp3340
I816
aI3454
aI7500
aa(lp3341
I816
aI3454
aI7500
aa(lp3342
I816
aI3454
aI7500
aa(lp3343
I816
aI3454
aI7500
aa(lp3344
I816
aI3454
aI7500
aa(lp3345
I816
aI3454
aI7500
aa(lp3346
I817
aI3454
aI7500
aa(lp3347
I817
aI3454
aI7500
aa(lp3348
I817
aI3454
aI7500
aa(lp3349
I817
aI3454
aI7500
aa(lp3350
I817
aI3454
aI7500
aa(lp3351
I817
aI3454
aI7500
aa(lp3352
I818
aI3454
aI7500
aa(lp3353
I818
aI3454
aI7500
aa(lp3354
I818
aI3454
aI7500
aa(lp3355
I818
aI3454
aI7500
aa(lp3356
I818
aI3454
aI7500
aa(lp3357
I819
aI3454
aI7500
aa(lp3358
I819
aI3454
aI7500
aa(lp3359
I819
aI3454
aI7500
aa(lp3360
I819
aI3454
aI7500
aa(lp3361
I819
aI3454
aI7500
aa(lp3362
I819
aI3454
aI7500
aa(lp3363
I820
aI3454
aI7500
aa(lp3364
I820
aI3454
aI7500
aa(lp3365
I820
aI3454
aI7500
aa(lp3366
I820
aI3454
aI7500
aa(lp3367
I820
aI3454
aI7500
aa(lp3368
I820
aI3454
aI7500
aa(lp3369
I821
aI3454
aI7500
aa(lp3370
I821
aI3454
aI7500
aa(lp3371
I821
aI3454
aI7500
aa(lp3372
I821
aI3454
aI7500
aa(lp3373
I821
aI3454
aI7500
aa(lp3374
I821
aI3454
aI7500
aa(lp3375
I822
aI3454
aI7500
aa(lp3376
I822
aI3454
aI7500
aa(lp3377
I822
aI3454
aI7500
aa(lp3378
I822
aI3454
aI7500
aa(lp3379
I822
aI3454
aI7500
aa(lp3380
I822
aI3454
aI7500
aa(lp3381
I823
aI3454
aI7500
aa(lp3382
I823
aI3454
aI7500
aa(lp3383
I823
aI3454
aI7500
aa(lp3384
I823
aI3454
aI7500
aa(lp3385
I823
aI3454
aI7500
aa(lp3386
I824
aI3454
aI7500
aa(lp3387
I824
aI3454
aI7500
aa(lp3388
I824
aI3454
aI7500
aa(lp3389
I824
aI3454
aI7500
aa(lp3390
I824
aI3454
aI7500
aa(lp3391
I824
aI3454
aI7500
aa(lp3392
I825
aI3454
aI7500
aa(lp3393
I825
aI3454
aI7500
aa(lp3394
I825
aI3454
aI7500
aa(lp3395
I825
aI3454
aI7500
aa(lp3396
I825
aI3454
aI7500
aa(lp3397
I825
aI3454
aI7500
aa(lp3398
I826
aI3454
aI7500
aa(lp3399
I826
aI3454
aI7500
aa(lp3400
I826
aI3454
aI7500
aa(lp3401
I826
aI3454
aI7500
aa(lp3402
I826
aI3454
aI7500
aa(lp3403
I826
aI3454
aI7500
aa(lp3404
I827
aI3454
aI7500
aa(lp3405
I827
aI3454
aI7500
aa(lp3406
I827
aI3454
aI7500
aa(lp3407
I827
aI3454
aI7500
aa(lp3408
I827
aI3454
aI7500
aa(lp3409
I827
aI3454
aI7500
aa(lp3410
I827
aI3454
aI7500
aa(lp3411
I828
aI3454
aI7500
aa(lp3412
I828
aI3454
aI7500
aa(lp3413
I828
aI3454
aI7500
aa(lp3414
I828
aI3454
aI7500
aa(lp3415
I828
aI3454
aI7500
aa(lp3416
I828
aI3454
aI7500
aa(lp3417
I829
aI3454
aI7500
aa(lp3418
I829
aI3454
aI7500
aa(lp3419
I829
aI3454
aI7500
aa(lp3420
I829
aI3454
aI7500
aa(lp3421
I829
aI3454
aI7500
aa(lp3422
I829
aI3454
aI7500
aa(lp3423
I830
aI3454
aI7500
aa(lp3424
I830
aI3454
aI7500
aa(lp3425
I830
aI3454
aI7500
aa(lp3426
I830
aI3454
aI7500
aa(lp3427
I830
aI3454
aI7500
aa(lp3428
I830
aI3454
aI7500
aa(lp3429
I830
aI3454
aI7500
aa(lp3430
I831
aI3454
aI7500
aa(lp3431
I831
aI3454
aI7500
aa(lp3432
I831
aI3454
aI7500
aa(lp3433
I831
aI3454
aI7500
aa(lp3434
I831
aI3454
aI7500
aa(lp3435
I831
aI3454
aI7500
aa(lp3436
I832
aI3454
aI7500
aa(lp3437
I832
aI3454
aI7500
aa(lp3438
I832
aI3454
aI7500
aa(lp3439
I832
aI3454
aI7500
aa(lp3440
I832
aI3454
aI7500
aa(lp3441
I832
aI3454
aI7500
aa(lp3442
I833
aI3454
aI7500
aa(lp3443
I833
aI3454
aI7500
aa(lp3444
I833
aI3454
aI7500
aa(lp3445
I833
aI3454
aI7500
aa(lp3446
I833
aI3454
aI7500
aa(lp3447
I833
aI3454
aI7500
aa(lp3448
I834
aI3454
aI7500
aa(lp3449
I834
aI3454
aI7500
aa(lp3450
I834
aI3454
aI7500
aa(lp3451
I834
aI3454
aI7500
aa(lp3452
I834
aI3454
aI7500
aa(lp3453
I834
aI3454
aI7500
aa(lp3454
I835
aI3454
aI7500
aa(lp3455
I835
aI3454
aI7500
aa(lp3456
I835
aI3454
aI7500
aa(lp3457
I835
aI3454
aI7500
aa(lp3458
I835
aI3454
aI7500
aa(lp3459
I835
aI3454
aI7500
aa(lp3460
I836
aI3454
aI7500
aa(lp3461
I836
aI3454
aI7500
aa(lp3462
I836
aI3454
aI7500
aa(lp3463
I836
aI3454
aI7500
aa(lp3464
I836
aI3454
aI7500
aa(lp3465
I836
aI3454
aI7500
aa(lp3466
I837
aI3454
aI7500
aa(lp3467
I837
aI3454
aI7500
aa(lp3468
I837
aI3454
aI7500
aa(lp3469
I837
aI3454
aI7500
aa(lp3470
I837
aI3454
aI7500
aa(lp3471
I837
aI3454
aI7500
aa(lp3472
I838
aI3454
aI7500
aa(lp3473
I838
aI3454
aI7500
aa(lp3474
I838
aI3454
aI7500
aa(lp3475
I838
aI3454
aI7500
aa(lp3476
I838
aI3454
aI7500
aa(lp3477
I838
aI3454
aI7500
aa(lp3478
I839
aI3454
aI7500
aa(lp3479
I839
aI3454
aI7500
aa(lp3480
I839
aI3454
aI7500
aa(lp3481
I839
aI3454
aI7500
aa(lp3482
I839
aI3454
aI7500
aa(lp3483
I839
aI3454
aI7500
aa(lp3484
I839
aI3454
aI7500
aa(lp3485
I840
aI3454
aI7500
aa(lp3486
I840
aI3454
aI7500
aa(lp3487
I840
aI3454
aI7500
aa(lp3488
I840
aI3454
aI7500
aa(lp3489
I840
aI3454
aI7500
aa(lp3490
I840
aI3454
aI7500
aa(lp3491
I841
aI3454
aI7500
aa(lp3492
I841
aI3454
aI7500
aa(lp3493
I841
aI3454
aI7500
aa(lp3494
I841
aI3454
aI7500
aa(lp3495
I841
aI3454
aI7500
aa(lp3496
I841
aI3454
aI7500
aa(lp3497
I841
aI3454
aI7500
aa(lp3498
I842
aI3454
aI7500
aa(lp3499
I842
aI3454
aI7500
aa(lp3500
I842
aI3454
aI7500
aa(lp3501
I842
aI3454
aI7500
aa(lp3502
I842
aI3454
aI7500
aa(lp3503
I842
aI3454
aI7500
aa(lp3504
I843
aI3454
aI7500
aa(lp3505
I843
aI3454
aI7500
aa(lp3506
I843
aI3454
aI7500
aa(lp3507
I843
aI3454
aI7500
aa(lp3508
I843
aI3454
aI7500
aa(lp3509
I843
aI3454
aI7500
aa(lp3510
I844
aI3454
aI7500
aa(lp3511
I844
aI3454
aI7500
aa(lp3512
I844
aI3454
aI7500
aa(lp3513
I844
aI3454
aI7500
aa(lp3514
I844
aI3454
aI7500
aa(lp3515
I844
aI3454
aI7500
aa(lp3516
I844
aI3454
aI7500
aa(lp3517
I845
aI3454
aI7500
aa(lp3518
I845
aI3454
aI7500
aa(lp3519
I845
aI3454
aI7500
aa(lp3520
I845
aI3454
aI7500
aa(lp3521
I845
aI3454
aI7500
aa(lp3522
I845
aI3454
aI7500
aa(lp3523
I846
aI3454
aI7500
aa(lp3524
I846
aI3454
aI7500
aa(lp3525
I846
aI3454
aI7500
aa(lp3526
I846
aI3454
aI7500
aa(lp3527
I846
aI3454
aI7500
aa(lp3528
I847
aI3454
aI7500
aa(lp3529
I847
aI3454
aI7500
aa(lp3530
I847
aI3454
aI7500
aa(lp3531
I847
aI3454
aI7500
aa(lp3532
I847
aI3454
aI7500
aa(lp3533
I847
aI3454
aI7500
aa(lp3534
I848
aI3454
aI7500
aa(lp3535
I848
aI3454
aI7500
aa(lp3536
I848
aI3454
aI7500
aa(lp3537
I848
aI3454
aI7500
aa(lp3538
I848
aI3454
aI7500
aa(lp3539
I848
aI3454
aI7500
aa(lp3540
I848
aI3454
aI7500
aa(lp3541
I849
aI3454
aI7500
aa(lp3542
I849
aI3454
aI7500
aa(lp3543
I849
aI3454
aI7500
aa(lp3544
I849
aI3454
aI7500
aa(lp3545
I849
aI3454
aI7500
aa(lp3546
I850
aI3454
aI7500
aa(lp3547
I850
aI3454
aI7500
aa(lp3548
I850
aI3454
aI7500
aa(lp3549
I850
aI3454
aI7500
aa(lp3550
I850
aI3454
aI7500
aa(lp3551
I850
aI3454
aI7500
aa(lp3552
I850
aI3454
aI7500
aa(lp3553
I851
aI3454
aI7500
aa(lp3554
I851
aI3454
aI7500
aa(lp3555
I851
aI3454
aI7500
aa(lp3556
I851
aI3454
aI7500
aa(lp3557
I851
aI3454
aI7500
aa(lp3558
I851
aI3454
aI7500
aa(lp3559
I852
aI3454
aI7500
aa(lp3560
I852
aI3454
aI7500
aa(lp3561
I852
aI3454
aI7500
aa(lp3562
I852
aI3454
aI7500
aa(lp3563
I852
aI3454
aI7500
aa(lp3564
I852
aI3454
aI7500
aa(lp3565
I852
aI3454
aI7500
aa(lp3566
I853
aI3454
aI7500
aa(lp3567
I853
aI3454
aI7500
aa(lp3568
I853
aI3454
aI7500
aa(lp3569
I853
aI3454
aI7500
aa(lp3570
I853
aI3454
aI7500
aa(lp3571
I853
aI3454
aI7500
aa(lp3572
I854
aI3454
aI7500
aa(lp3573
I854
aI3454
aI7500
aa(lp3574
I854
aI3454
aI7500
aa(lp3575
I854
aI3454
aI7500
aa(lp3576
I854
aI3454
aI7500
aa(lp3577
I854
aI3454
aI7500
aa(lp3578
I855
aI3454
aI7500
aa(lp3579
I855
aI3454
aI7500
aa(lp3580
I855
aI3454
aI7500
aa(lp3581
I855
aI3454
aI7500
aa(lp3582
I855
aI3454
aI7500
aa(lp3583
I855
aI3454
aI7500
aa(lp3584
I856
aI3454
aI7500
aa(lp3585
I856
aI3454
aI7500
aa(lp3586
I856
aI3454
aI7500
aa(lp3587
I856
aI3454
aI7500
aa(lp3588
I856
aI3454
aI7500
aa(lp3589
I856
aI3454
aI7500
aa(lp3590
I857
aI3454
aI7500
aa(lp3591
I857
aI3454
aI7500
aa(lp3592
I857
aI3454
aI7500
aa(lp3593
I857
aI3454
aI7500
aa(lp3594
I857
aI3454
aI7500
aa(lp3595
I857
aI3454
aI7500
aa(lp3596
I858
aI3454
aI7500
aa(lp3597
I858
aI3454
aI7500
aa(lp3598
I858
aI3454
aI7500
aa(lp3599
I858
aI3454
aI7500
aa(lp3600
I858
aI3454
aI7500
aa(lp3601
I859
aI3454
aI7500
aa(lp3602
I859
aI3454
aI7500
aa(lp3603
I859
aI3454
aI7500
aa(lp3604
I859
aI3454
aI7500
aa(lp3605
I859
aI3454
aI7500
aa(lp3606
I860
aI3454
aI7500
aa(lp3607
I860
aI3454
aI7500
aa(lp3608
I860
aI3454
aI7500
aa(lp3609
I860
aI3454
aI7500
aa(lp3610
I860
aI3454
aI7500
aa(lp3611
I860
aI3454
aI7500
aa(lp3612
I860
aI3454
aI7500
aa(lp3613
I861
aI3454
aI7500
aa(lp3614
I861
aI3454
aI7500
aa(lp3615
I861
aI3454
aI7500
aa(lp3616
I861
aI3454
aI7500
aa(lp3617
I861
aI3454
aI7500
aa(lp3618
I861
aI3454
aI7500
aa(lp3619
I862
aI3454
aI7500
aa(lp3620
I862
aI3454
aI7500
aa(lp3621
I862
aI3454
aI7500
aa(lp3622
I862
aI3454
aI7500
aa(lp3623
I862
aI3454
aI7500
aa(lp3624
I862
aI3454
aI7500
aa(lp3625
I862
aI3454
aI7500
aa(lp3626
I863
aI3454
aI7500
aa(lp3627
I863
aI3454
aI7500
aa(lp3628
I863
aI3454
aI7500
aa(lp3629
I863
aI3454
aI7500
aa(lp3630
I863
aI3454
aI7500
aa(lp3631
I863
aI3454
aI7500
aa(lp3632
I864
aI3454
aI7500
aa(lp3633
I864
aI3454
aI7500
aa(lp3634
I864
aI3454
aI7500
aa(lp3635
I864
aI3454
aI7500
aa(lp3636
I864
aI3454
aI7500
aa(lp3637
I864
aI3454
aI7500
aa(lp3638
I865
aI3454
aI7500
aa(lp3639
I865
aI3454
aI7500
aa(lp3640
I865
aI3454
aI7500
aa(lp3641
I865
aI3454
aI7500
aa(lp3642
I865
aI3454
aI7500
aa(lp3643
I865
aI3454
aI7500
aa(lp3644
I866
aI3454
aI7500
aa(lp3645
I866
aI3454
aI7500
aa(lp3646
I866
aI3454
aI7500
aa(lp3647
I866
aI3454
aI7500
aa(lp3648
I866
aI3454
aI7500
aa(lp3649
I866
aI3454
aI7500
aa(lp3650
I866
aI3454
aI7500
aa(lp3651
I867
aI3454
aI7500
aa(lp3652
I867
aI3454
aI7500
aa(lp3653
I867
aI3454
aI7500
aa(lp3654
I867
aI3454
aI7500
aa(lp3655
I867
aI3454
aI7500
aa(lp3656
I867
aI3454
aI7500
aa(lp3657
I868
aI3454
aI7500
aa(lp3658
I868
aI3454
aI7500
aa(lp3659
I868
aI3454
aI7500
aa(lp3660
I868
aI3454
aI7500
aa(lp3661
I868
aI3454
aI7500
aa(lp3662
I868
aI3454
aI7500
aa(lp3663
I869
aI3454
aI7500
aa(lp3664
I869
aI3454
aI7500
aa(lp3665
I869
aI3454
aI7500
aa(lp3666
I869
aI3454
aI7500
aa(lp3667
I869
aI3454
aI7500
aa(lp3668
I869
aI3454
aI7500
aa(lp3669
I870
aI3454
aI7500
aa(lp3670
I870
aI3454
aI7500
aa(lp3671
I870
aI3454
aI7500
aa(lp3672
I870
aI3454
aI7500
aa(lp3673
I870
aI3454
aI7500
aa(lp3674
I870
aI3454
aI7500
aa(lp3675
I870
aI3454
aI7500
aa(lp3676
I871
aI3454
aI7500
aa(lp3677
I871
aI3454
aI7500
aa(lp3678
I871
aI3454
aI7500
aa(lp3679
I871
aI3454
aI7500
aa(lp3680
I871
aI3454
aI7500
aa(lp3681
I872
aI3454
aI7500
aa(lp3682
I872
aI3454
aI7500
aa(lp3683
I872
aI3454
aI7500
aa(lp3684
I872
aI3454
aI7500
aa(lp3685
I872
aI3454
aI7500
aa(lp3686
I872
aI3454
aI7500
aa(lp3687
I872
aI3454
aI7500
aa(lp3688
I873
aI3454
aI7500
aa(lp3689
I873
aI3454
aI7500
aa(lp3690
I873
aI3454
aI7500
aa(lp3691
I873
aI3454
aI7500
aa(lp3692
I873
aI3454
aI7500
aa(lp3693
I873
aI3454
aI7500
aa(lp3694
I874
aI3454
aI7500
aa(lp3695
I874
aI3454
aI7500
aa(lp3696
I874
aI3454
aI7500
aa(lp3697
I874
aI3454
aI7500
aa(lp3698
I874
aI3454
aI7500
aa(lp3699
I874
aI3454
aI7500
aa(lp3700
I875
aI3454
aI7500
aa(lp3701
I875
aI3454
aI7500
aa(lp3702
I875
aI3454
aI7500
aa(lp3703
I875
aI3454
aI7500
aa(lp3704
I875
aI3454
aI7500
aa(lp3705
I875
aI3454
aI7500
aa(lp3706
I876
aI3454
aI7500
aa(lp3707
I876
aI3454
aI7500
aa(lp3708
I876
aI3454
aI7500
aa(lp3709
I876
aI3454
aI7500
aa(lp3710
I876
aI3454
aI7500
aa(lp3711
I876
aI3454
aI7500
aa(lp3712
I877
aI3454
aI7500
aa(lp3713
I877
aI3454
aI7500
aa(lp3714
I877
aI3454
aI7500
aa(lp3715
I877
aI3454
aI7500
aa(lp3716
I877
aI3454
aI7500
aa(lp3717
I877
aI3454
aI7500
aa(lp3718
I878
aI3454
aI7500
aa(lp3719
I878
aI3454
aI7500
aa(lp3720
I878
aI3454
aI7500
aa(lp3721
I878
aI3454
aI7500
aa(lp3722
I878
aI3454
aI7500
aa(lp3723
I878
aI3454
aI7500
aa(lp3724
I879
aI3454
aI7500
aa(lp3725
I879
aI3454
aI7500
aa(lp3726
I879
aI3454
aI7500
aa(lp3727
I879
aI3454
aI7500
aa(lp3728
I879
aI3454
aI7500
aa(lp3729
I879
aI3454
aI7500
aa(lp3730
I880
aI3454
aI7500
aa(lp3731
I880
aI3454
aI7500
aa(lp3732
I880
aI3454
aI7500
aa(lp3733
I880
aI3454
aI7500
aa(lp3734
I880
aI3454
aI7500
aa(lp3735
I880
aI3454
aI7500
aa(lp3736
I881
aI3454
aI7500
aa(lp3737
I881
aI3454
aI7500
aa(lp3738
I881
aI3454
aI7500
aa(lp3739
I881
aI3454
aI7500
aa(lp3740
I881
aI3454
aI7500
aa(lp3741
I881
aI3454
aI7500
aa(lp3742
I881
aI3454
aI7500
aa(lp3743
I882
aI3454
aI7500
aa(lp3744
I882
aI3454
aI7500
aa(lp3745
I882
aI3454
aI7500
aa(lp3746
I882
aI3454
aI7500
aa(lp3747
I882
aI3454
aI7500
aa(lp3748
I882
aI3454
aI7500
aa(lp3749
I883
aI3454
aI7500
aa(lp3750
I883
aI3454
aI7500
aa(lp3751
I883
aI3454
aI7500
aa(lp3752
I883
aI3454
aI7500
aa(lp3753
I883
aI3454
aI7500
aa(lp3754
I883
aI3454
aI7500
aa(lp3755
I884
aI3454
aI7500
aa(lp3756
I884
aI3454
aI7500
aa(lp3757
I884
aI3454
aI7500
aa(lp3758
I884
aI3454
aI7500
aa(lp3759
I884
aI3454
aI7500
aa(lp3760
I884
aI3454
aI7500
aa(lp3761
I885
aI3454
aI7500
aa(lp3762
I885
aI3454
aI7500
aa(lp3763
I885
aI3454
aI7500
aa(lp3764
I885
aI3454
aI7500
aa(lp3765
I885
aI3454
aI7500
aa(lp3766
I885
aI3454
aI7500
aa(lp3767
I886
aI3454
aI7500
aa(lp3768
I886
aI3454
aI7500
aa(lp3769
I886
aI3454
aI7500
aa(lp3770
I886
aI3454
aI7500
aa(lp3771
I886
aI3454
aI7500
aa(lp3772
I886
aI3454
aI7500
aa(lp3773
I887
aI3454
aI7500
aa(lp3774
I887
aI3454
aI7500
aa(lp3775
I887
aI3454
aI7500
aa(lp3776
I887
aI3454
aI7500
aa(lp3777
I887
aI3454
aI7500
aa(lp3778
I887
aI3454
aI7500
aa(lp3779
I888
aI3454
aI7500
aa(lp3780
I888
aI3454
aI7500
aa(lp3781
I888
aI3454
aI7500
aa(lp3782
I888
aI3454
aI7500
aa(lp3783
I888
aI3454
aI7500
aa(lp3784
I888
aI3454
aI7500
aa(lp3785
I889
aI3454
aI7500
aa(lp3786
I889
aI3454
aI7500
aa(lp3787
I889
aI3454
aI7500
aa(lp3788
I889
aI3454
aI7500
aa(lp3789
I889
aI3454
aI7500
aa(lp3790
I889
aI3454
aI7500
aa(lp3791
I889
aI3454
aI7500
aa(lp3792
I890
aI3454
aI7500
aa(lp3793
I890
aI3454
aI7500
aa(lp3794
I890
aI3454
aI7500
aa(lp3795
I890
aI3454
aI7500
aa(lp3796
I890
aI3454
aI7500
aa(lp3797
I890
aI3454
aI7500
aa(lp3798
I892
aI3458
aI7500
aa(lp3799
I892
aI3458
aI7500
aa(lp3800
I892
aI3458
aI7500
aa(lp3801
I893
aI3458
aI7500
aa(lp3802
I894
aI3509
aI7500
aa(lp3803
I894
aI3509
aI7500
aa(lp3804
I895
aI3590
aI7500
aa(lp3805
I896
aI3661
aI7500
aa(lp3806
I898
aI3668
aI7500
aa(lp3807
I900
aI3680
aI7500
aa(lp3808
I900
aI3684
aI7500
aa(lp3809
I902
aI3690
aI7500
aa(lp3810
I902
aI3690
aI7500
aa(lp3811
I902
aI3690
aI7500
aa(lp3812
I902
aI3690
aI7500
aa(lp3813
I904
aI3692
aI7500
aa(lp3814
I904
aI3692
aI7500
aa(lp3815
I905
aI3692
aI7500
aa(lp3816
I905
aI3694
aI7500
aa(lp3817
I906
aI3694
aI7500
aa(lp3818
I906
aI3694
aI7500
aa(lp3819
I906
aI3694
aI7500
aa(lp3820
I906
aI3694
aI7500
aa(lp3821
I907
aI3694
aI7500
aa(lp3822
I907
aI3694
aI7500
aa(lp3823
I907
aI3694
aI7500
aa(lp3824
I907
aI3694
aI7500
aa(lp3825
I907
aI3694
aI7500
aa(lp3826
I907
aI3694
aI7500
aa(lp3827
I907
aI3694
aI7500
aa(lp3828
I908
aI3694
aI7500
aa(lp3829
I908
aI3694
aI7500
aa(lp3830
I908
aI3694
aI7500
aa(lp3831
I909
aI3696
aI7500
aa(lp3832
I910
aI3696
aI7500
aa(lp3833
I910
aI3696
aI7500
aa(lp3834
I910
aI3696
aI7500
aa(lp3835
I910
aI3696
aI7500
aa(lp3836
I910
aI3696
aI7500
aa(lp3837
I910
aI3696
aI7500
aa(lp3838
I912
aI3698
aI7500
aa(lp3839
I912
aI3698
aI7500
aa(lp3840
I912
aI3698
aI7500
aa(lp3841
I912
aI3698
aI7500
aa(lp3842
I912
aI3698
aI7500
aa(lp3843
I912
aI3698
aI7500
aa(lp3844
I913
aI3698
aI7500
aa(lp3845
I913
aI3698
aI7500
aa(lp3846
I913
aI3698
aI7500
aa(lp3847
I913
aI3698
aI7500
aa(lp3848
I913
aI3698
aI7500
aa(lp3849
I913
aI3698
aI7500
aa(lp3850
I913
aI3698
aI7500
aa(lp3851
I914
aI3698
aI7500
aa(lp3852
I914
aI3698
aI7500
aa(lp3853
I914
aI3698
aI7500
aa(lp3854
I914
aI3698
aI7500
aa(lp3855
I914
aI3698
aI7500
aa(lp3856
I914
aI3698
aI7500
aa(lp3857
I915
aI3698
aI7500
aa(lp3858
I915
aI3698
aI7500
aa(lp3859
I915
aI3698
aI7500
aa(lp3860
I915
aI3698
aI7500
aa(lp3861
I915
aI3698
aI7500
aa(lp3862
I915
aI3698
aI7500
aa(lp3863
I916
aI3698
aI7500
aa(lp3864
I916
aI3698
aI7500
aa(lp3865
I916
aI3698
aI7500
aa(lp3866
I916
aI3698
aI7500
aa(lp3867
I916
aI3698
aI7500
aa(lp3868
I916
aI3698
aI7500
aa(lp3869
I917
aI3698
aI7500
aa(lp3870
I917
aI3698
aI7500
aa(lp3871
I917
aI3698
aI7500
aa(lp3872
I917
aI3698
aI7500
aa(lp3873
I917
aI3698
aI7500
aa(lp3874
I917
aI3698
aI7500
aa(lp3875
I918
aI3698
aI7500
aa(lp3876
I918
aI3698
aI7500
aa(lp3877
I918
aI3698
aI7500
aa(lp3878
I918
aI3698
aI7500
aa(lp3879
I918
aI3698
aI7500
aa(lp3880
I919
aI3698
aI7500
aa(lp3881
I919
aI3698
aI7500
aa(lp3882
I919
aI3698
aI7500
aa(lp3883
I919
aI3698
aI7500
aa(lp3884
I919
aI3698
aI7500
aa(lp3885
I919
aI3698
aI7500
aa(lp3886
I920
aI3698
aI7500
aa(lp3887
I920
aI3698
aI7500
aa(lp3888
I920
aI3698
aI7500
aa(lp3889
I920
aI3698
aI7500
aa(lp3890
I920
aI3698
aI7500
aa(lp3891
I920
aI3698
aI7500
aa(lp3892
I920
aI3698
aI7500
aa(lp3893
I921
aI3698
aI7500
aa(lp3894
I921
aI3698
aI7500
aa(lp3895
I921
aI3698
aI7500
aa(lp3896
I921
aI3698
aI7500
aa(lp3897
I921
aI3698
aI7500
aa(lp3898
I921
aI3698
aI7500
aa(lp3899
I922
aI3698
aI7500
aa(lp3900
I922
aI3698
aI7500
aa(lp3901
I923
aI3699
aI7500
aa(lp3902
I924
aI3699
aI7500
aa(lp3903
I925
aI3699
aI7500
aa(lp3904
I925
aI3699
aI7500
aa(lp3905
I925
aI3699
aI7500
aa(lp3906
I925
aI3699
aI7500
aa(lp3907
I925
aI3699
aI7500
aa(lp3908
I925
aI3699
aI7500
aa(lp3909
I926
aI3699
aI7500
aa(lp3910
I926
aI3699
aI7500
aa(lp3911
I926
aI3699
aI7500
aa(lp3912
I926
aI3699
aI7500
aa(lp3913
I926
aI3699
aI7500
aa(lp3914
I926
aI3699
aI7500
aa(lp3915
I927
aI3699
aI7500
aa(lp3916
I927
aI3699
aI7500
aa(lp3917
I927
aI3699
aI7500
aa(lp3918
I927
aI3699
aI7500
aa(lp3919
I927
aI3699
aI7500
aa(lp3920
I927
aI3699
aI7500
aa(lp3921
I928
aI3699
aI7500
aa(lp3922
I928
aI3699
aI7500
aa(lp3923
I928
aI3699
aI7500
aa(lp3924
I928
aI3699
aI7500
aa(lp3925
I928
aI3699
aI7500
aa(lp3926
I928
aI3699
aI7500
aa(lp3927
I929
aI3699
aI7500
aa(lp3928
I929
aI3699
aI7500
aa(lp3929
I929
aI3699
aI7500
aa(lp3930
I929
aI3699
aI7500
aa(lp3931
I929
aI3699
aI7500
aa(lp3932
I929
aI3699
aI7500
aa(lp3933
I930
aI3699
aI7500
aa(lp3934
I930
aI3699
aI7500
aa(lp3935
I930
aI3699
aI7500
aa(lp3936
I930
aI3699
aI7500
aa(lp3937
I930
aI3699
aI7500
aa(lp3938
I930
aI3699
aI7500
aa(lp3939
I931
aI3699
aI7500
aa(lp3940
I931
aI3699
aI7500
aa(lp3941
I931
aI3699
aI7500
aa(lp3942
I931
aI3699
aI7500
aa(lp3943
I931
aI3699
aI7500
aa(lp3944
I931
aI3699
aI7500
aa(lp3945
I932
aI3699
aI7500
aa(lp3946
I932
aI3699
aI7500
aa(lp3947
I932
aI3699
aI7500
aa(lp3948
I932
aI3699
aI7500
aa(lp3949
I932
aI3699
aI7500
aa(lp3950
I932
aI3699
aI7500
aa(lp3951
I933
aI3699
aI7500
aa(lp3952
I933
aI3699
aI7500
aa(lp3953
I933
aI3699
aI7500
aa(lp3954
I933
aI3699
aI7500
aa(lp3955
I933
aI3699
aI7500
aa(lp3956
I933
aI3699
aI7500
aa(lp3957
I934
aI3699
aI7500
aa(lp3958
I934
aI3699
aI7500
aa(lp3959
I934
aI3699
aI7500
aa(lp3960
I934
aI3699
aI7500
aa(lp3961
I934
aI3699
aI7500
aa(lp3962
I934
aI3699
aI7500
aa(lp3963
I935
aI3699
aI7500
aa(lp3964
I935
aI3699
aI7500
aa(lp3965
I935
aI3699
aI7500
aa(lp3966
I935
aI3699
aI7500
aa(lp3967
I935
aI3699
aI7500
aa(lp3968
I935
aI3699
aI7500
aa(lp3969
I935
aI3699
aI7500
aa(lp3970
I936
aI3699
aI7500
aa(lp3971
I936
aI3699
aI7500
aa(lp3972
I936
aI3699
aI7500
aa(lp3973
I936
aI3699
aI7500
aa(lp3974
I936
aI3699
aI7500
aa(lp3975
I937
aI3699
aI7500
aa(lp3976
I937
aI3699
aI7500
aa(lp3977
I937
aI3699
aI7500
aa(lp3978
I937
aI3699
aI7500
aa(lp3979
I937
aI3699
aI7500
aa(lp3980
I937
aI3699
aI7500
aa(lp3981
I937
aI3699
aI7500
aa(lp3982
I938
aI3699
aI7500
aa(lp3983
I938
aI3699
aI7500
aa(lp3984
I938
aI3699
aI7500
aa(lp3985
I938
aI3699
aI7500
aa(lp3986
I938
aI3699
aI7500
aa(lp3987
I938
aI3699
aI7500
aa(lp3988
I939
aI3699
aI7500
aa(lp3989
I939
aI3699
aI7500
aa(lp3990
I939
aI3699
aI7500
aa(lp3991
I939
aI3699
aI7500
aa(lp3992
I939
aI3699
aI7500
aa(lp3993
I939
aI3699
aI7500
aa(lp3994
I940
aI3699
aI7500
aa(lp3995
I940
aI3699
aI7500
aa(lp3996
I940
aI3699
aI7500
aa(lp3997
I940
aI3699
aI7500
aa(lp3998
I940
aI3699
aI7500
aa(lp3999
I940
aI3699
aI7500
aa(lp4000
I941
aI3699
aI7500
aa(lp4001
I941
aI3699
aI7500
aa(lp4002
I941
aI3699
aI7500
aa(lp4003
I941
aI3699
aI7500
aa(lp4004
I941
aI3699
aI7500
aa(lp4005
I941
aI3699
aI7500
aa(lp4006
I942
aI3699
aI7500
aa(lp4007
I942
aI3699
aI7500
aa(lp4008
I942
aI3699
aI7500
aa(lp4009
I942
aI3699
aI7500
aa(lp4010
I942
aI3699
aI7500
aa(lp4011
I942
aI3699
aI7500
aa(lp4012
I943
aI3699
aI7500
aa(lp4013
I943
aI3699
aI7500
aa(lp4014
I943
aI3699
aI7500
aa(lp4015
I943
aI3699
aI7500
aa(lp4016
I943
aI3699
aI7500
aa(lp4017
I943
aI3699
aI7500
aa(lp4018
I943
aI3699
aI7500
aa(lp4019
I944
aI3699
aI7500
aa(lp4020
I944
aI3699
aI7500
aa(lp4021
I944
aI3699
aI7500
aa(lp4022
I944
aI3699
aI7500
aa(lp4023
I944
aI3699
aI7500
aa(lp4024
I944
aI3699
aI7500
aa(lp4025
I945
aI3699
aI7500
aa(lp4026
I945
aI3699
aI7500
aa(lp4027
I945
aI3699
aI7500
aa(lp4028
I945
aI3699
aI7500
aa(lp4029
I945
aI3699
aI7500
aa(lp4030
I945
aI3699
aI7500
aa(lp4031
I946
aI3699
aI7500
aa(lp4032
I946
aI3699
aI7500
aa(lp4033
I946
aI3699
aI7500
aa(lp4034
I946
aI3699
aI7500
aa(lp4035
I946
aI3699
aI7500
aa(lp4036
I946
aI3699
aI7500
aa(lp4037
I946
aI3699
aI7500
aa(lp4038
I947
aI3699
aI7500
aa(lp4039
I947
aI3699
aI7500
aa(lp4040
I947
aI3699
aI7500
aa(lp4041
I947
aI3699
aI7500
aa(lp4042
I947
aI3699
aI7500
aa(lp4043
I947
aI3699
aI7500
aa(lp4044
I948
aI3699
aI7500
aa(lp4045
I948
aI3699
aI7500
aa(lp4046
I948
aI3699
aI7500
aa(lp4047
I948
aI3699
aI7500
aa(lp4048
I948
aI3699
aI7500
aa(lp4049
I948
aI3699
aI7500
aa(lp4050
I948
aI3699
aI7500
aa(lp4051
I949
aI3699
aI7500
aa(lp4052
I949
aI3699
aI7500
aa(lp4053
I949
aI3699
aI7500
aa(lp4054
I949
aI3699
aI7500
aa(lp4055
I949
aI3699
aI7500
aa(lp4056
I949
aI3699
aI7500
aa(lp4057
I950
aI3699
aI7500
aa(lp4058
I950
aI3699
aI7500
aa(lp4059
I950
aI3699
aI7500
aa(lp4060
I950
aI3699
aI7500
aa(lp4061
I950
aI3699
aI7500
aa(lp4062
I950
aI3699
aI7500
aa(lp4063
I951
aI3699
aI7500
aa(lp4064
I951
aI3699
aI7500
aa(lp4065
I951
aI3699
aI7500
aa(lp4066
I951
aI3699
aI7500
aa(lp4067
I951
aI3699
aI7500
aa(lp4068
I951
aI3699
aI7500
aa(lp4069
I952
aI3699
aI7500
aa(lp4070
I952
aI3699
aI7500
aa(lp4071
I952
aI3699
aI7500
aa(lp4072
I952
aI3699
aI7500
aa(lp4073
I952
aI3699
aI7500
aa(lp4074
I952
aI3699
aI7500
aa(lp4075
I953
aI3699
aI7500
aa(lp4076
I953
aI3699
aI7500
aa(lp4077
I953
aI3699
aI7500
aa(lp4078
I953
aI3699
aI7500
aa(lp4079
I953
aI3699
aI7500
aa(lp4080
I953
aI3699
aI7500
aa(lp4081
I954
aI3699
aI7500
aa(lp4082
I954
aI3699
aI7500
aa(lp4083
I954
aI3699
aI7500
aa(lp4084
I954
aI3699
aI7500
aa(lp4085
I954
aI3699
aI7500
aa(lp4086
I954
aI3699
aI7500
aa(lp4087
I955
aI3699
aI7500
aa(lp4088
I955
aI3699
aI7500
aa(lp4089
I955
aI3699
aI7500
aa(lp4090
I955
aI3699
aI7500
aa(lp4091
I955
aI3699
aI7500
aa(lp4092
I955
aI3699
aI7500
aa(lp4093
I956
aI3699
aI7500
aa(lp4094
I956
aI3699
aI7500
aa(lp4095
I956
aI3699
aI7500
aa(lp4096
I956
aI3699
aI7500
aa(lp4097
I956
aI3699
aI7500
aa(lp4098
I956
aI3699
aI7500
aa(lp4099
I957
aI3699
aI7500
aa(lp4100
I957
aI3699
aI7500
aa(lp4101
I957
aI3699
aI7500
aa(lp4102
I957
aI3699
aI7500
aa(lp4103
I957
aI3699
aI7500
aa(lp4104
I957
aI3699
aI7500
aa(lp4105
I957
aI3699
aI7500
aa(lp4106
I958
aI3699
aI7500
aa(lp4107
I958
aI3699
aI7500
aa(lp4108
I958
aI3699
aI7500
aa(lp4109
I958
aI3699
aI7500
aa(lp4110
I958
aI3699
aI7500
aa(lp4111
I958
aI3699
aI7500
aa(lp4112
I959
aI3699
aI7500
aa(lp4113
I959
aI3699
aI7500
aa(lp4114
I959
aI3699
aI7500
aa(lp4115
I959
aI3699
aI7500
aa(lp4116
I959
aI3699
aI7500
aa(lp4117
I959
aI3699
aI7500
aa(lp4118
I960
aI3699
aI7500
aa(lp4119
I960
aI3699
aI7500
aa(lp4120
I960
aI3699
aI7500
aa(lp4121
I960
aI3699
aI7500
aa(lp4122
I960
aI3699
aI7500
aa(lp4123
I960
aI3699
aI7500
aa(lp4124
I961
aI3699
aI7500
aa(lp4125
I961
aI3699
aI7500
aa(lp4126
I961
aI3699
aI7500
aa(lp4127
I961
aI3699
aI7500
aa(lp4128
I961
aI3699
aI7500
aa(lp4129
I961
aI3699
aI7500
aa(lp4130
I962
aI3699
aI7500
aa(lp4131
I963
aI3699
aI7500
aa(lp4132
I963
aI3699
aI7500
aa(lp4133
I963
aI3699
aI7500
aa(lp4134
I963
aI3699
aI7500
aa(lp4135
I963
aI3699
aI7500
aa(lp4136
I964
aI3699
aI7500
aa(lp4137
I964
aI3699
aI7500
aa(lp4138
I964
aI3699
aI7500
aa(lp4139
I964
aI3699
aI7500
aa(lp4140
I964
aI3699
aI7500
aa(lp4141
I964
aI3699
aI7500
aa(lp4142
I965
aI3699
aI7500
aa(lp4143
I965
aI3699
aI7500
aa(lp4144
I966
aI3699
aI7500
aa(lp4145
I966
aI3699
aI7500
aa(lp4146
I966
aI3699
aI7500
aa(lp4147
I966
aI3699
aI7500
aa(lp4148
I966
aI3699
aI7500
aa(lp4149
I969
aI3700
aI7500
aa(lp4150
I970
aI3706
aI7500
aa(lp4151
I972
aI3715
aI7500
aa(lp4152
I973
aI3715
aI7500
aa(lp4153
I973
aI3715
aI7500
aa(lp4154
I973
aI3715
aI7500
aa(lp4155
I973
aI3715
aI7500
aa(lp4156
I973
aI3715
aI7500
aa(lp4157
I973
aI3715
aI7500
aa(lp4158
I974
aI3715
aI7500
aa(lp4159
I974
aI3715
aI7500
aa(lp4160
I974
aI3715
aI7500
aa(lp4161
I974
aI3715
aI7500
aa(lp4162
I974
aI3715
aI7500
aa(lp4163
I974
aI3715
aI7500
aa(lp4164
I975
aI3715
aI7500
aa(lp4165
I975
aI3715
aI7500
aa(lp4166
I975
aI3715
aI7500
aa(lp4167
I975
aI3715
aI7500
aa(lp4168
I975
aI3715
aI7500
aa(lp4169
I975
aI3715
aI7500
aa(lp4170
I976
aI3715
aI7500
aa(lp4171
I976
aI3715
aI7500
aa(lp4172
I976
aI3715
aI7500
aa(lp4173
I976
aI3715
aI7500
aa(lp4174
I976
aI3715
aI7500
aa(lp4175
I976
aI3715
aI7500
aa(lp4176
I977
aI3715
aI7500
aa(lp4177
I977
aI3715
aI7500
aa(lp4178
I977
aI3715
aI7500
aa(lp4179
I977
aI3715
aI7500
aa(lp4180
I977
aI3715
aI7500
aa(lp4181
I977
aI3715
aI7500
aa(lp4182
I978
aI3715
aI7500
aa(lp4183
I978
aI3715
aI7500
aa(lp4184
I978
aI3715
aI7500
aa(lp4185
I978
aI3715
aI7500
aa(lp4186
I978
aI3715
aI7500
aa(lp4187
I979
aI3715
aI7500
aa(lp4188
I979
aI3715
aI7500
aa(lp4189
I979
aI3715
aI7500
aa(lp4190
I979
aI3715
aI7500
aa(lp4191
I979
aI3715
aI7500
aa(lp4192
I979
aI3715
aI7500
aa(lp4193
I980
aI3715
aI7500
aa(lp4194
I980
aI3715
aI7500
aa(lp4195
I980
aI3715
aI7500
aa(lp4196
I980
aI3715
aI7500
aa(lp4197
I980
aI3715
aI7500
aa(lp4198
I980
aI3715
aI7500
aa(lp4199
I980
aI3715
aI7500
aa(lp4200
I981
aI3715
aI7500
aa(lp4201
I981
aI3715
aI7500
aa(lp4202
I981
aI3715
aI7500
aa(lp4203
I981
aI3715
aI7500
aa(lp4204
I981
aI3715
aI7500
aa(lp4205
I981
aI3715
aI7500
aa(lp4206
I982
aI3715
aI7500
aa(lp4207
I982
aI3715
aI7500
aa(lp4208
I982
aI3715
aI7500
aa(lp4209
I982
aI3715
aI7500
aa(lp4210
I982
aI3715
aI7500
aa(lp4211
I982
aI3715
aI7500
aa(lp4212
I983
aI3715
aI7500
aa(lp4213
I983
aI3715
aI7500
aa(lp4214
I983
aI3715
aI7500
aa(lp4215
I983
aI3715
aI7500
aa(lp4216
I983
aI3715
aI7500
aa(lp4217
I983
aI3715
aI7500
aa(lp4218
I984
aI3715
aI7500
aa(lp4219
I984
aI3715
aI7500
aa(lp4220
I984
aI3715
aI7500
aa(lp4221
I985
aI3717
aI7500
aa(lp4222
I985
aI3717
aI7500
aa(lp4223
I985
aI3717
aI7500
aa(lp4224
I986
aI3717
aI7500
aa(lp4225
I986
aI3717
aI7500
aa(lp4226
I986
aI3725
aI7500
aa(lp4227
I987
aI3733
aI7500
aa(lp4228
I988
aI3733
aI7500
aa(lp4229
I988
aI3733
aI7500
aa(lp4230
I988
aI3742
aI7500
aa(lp4231
I990
aI3760
aI7500
aa(lp4232
I991
aI3765
aI7500
aa(lp4233
I992
aI3765
aI7500
aa(lp4234
I992
aI3765
aI7500
aa(lp4235
I992
aI3765
aI7500
aa(lp4236
I992
aI3765
aI7500
aa(lp4237
I992
aI3765
aI7500
aa(lp4238
I992
aI3765
aI7500
aa(lp4239
I993
aI3765
aI7500
aa(lp4240
I994
aI3773
aI7500
aa(lp4241
I994
aI3773
aI7500
aa(lp4242
I995
aI3773
aI7500
aa(lp4243
I995
aI3773
aI7500
aa(lp4244
I995
aI3773
aI7500
aa(lp4245
I995
aI3773
aI7500
aa(lp4246
I995
aI3773
aI7500
aa(lp4247
I995
aI3773
aI7500
aa(lp4248
I996
aI3773
aI7500
aa(lp4249
I996
aI3773
aI7500
aa(lp4250
I996
aI3773
aI7500
aa(lp4251
I996
aI3773
aI7500
aa(lp4252
I996
aI3773
aI7500
aa(lp4253
I996
aI3773
aI7500
aa(lp4254
I997
aI3773
aI7500
aa(lp4255
I997
aI3773
aI7500
aa(lp4256
I997
aI3773
aI7500
aa(lp4257
I997
aI3773
aI7500
aa(lp4258
I997
aI3773
aI7500
aa(lp4259
I997
aI3773
aI7500
aa(lp4260
I998
aI3773
aI7500
aa(lp4261
I998
aI3773
aI7500
aa(lp4262
I998
aI3773
aI7500
aa(lp4263
I998
aI3773
aI7500
aa(lp4264
I998
aI3773
aI7500
aa(lp4265
I999
aI3773
aI7500
aa(lp4266
I999
aI3773
aI7500
aa(lp4267
I999
aI3773
aI7500
aa(lp4268
I999
aI3773
aI7500
aa(lp4269
I999
aI3773
aI7500
aa(lp4270
I999
aI3773
aI7500
aa(lp4271
I1000
aI3773
aI7500
aa(lp4272
I1000
aI3773
aI7500
aa(lp4273
I1000
aI3773
aI7500
aa(lp4274
I1000
aI3773
aI7500
aa(lp4275
I1000
aI3773
aI7500
aa(lp4276
I1000
aI3773
aI7500
aa(lp4277
I1001
aI3773
aI7500
aa(lp4278
I1001
aI3773
aI7500
aa(lp4279
I1001
aI3773
aI7500
aa(lp4280
I1001
aI3773
aI7500
aa(lp4281
I1001
aI3773
aI7500
aa(lp4282
I1001
aI3773
aI7500
aa(lp4283
I1002
aI3773
aI7500
aa(lp4284
I1002
aI3773
aI7500
aa(lp4285
I1002
aI3773
aI7500
aa(lp4286
I1002
aI3773
aI7500
aa(lp4287
I1002
aI3773
aI7500
aa(lp4288
I1002
aI3773
aI7500
aa(lp4289
I1003
aI3773
aI7500
aa(lp4290
I1003
aI3773
aI7500
aa(lp4291
I1003
aI3773
aI7500
aa(lp4292
I1003
aI3773
aI7500
aa(lp4293
I1003
aI3773
aI7500
aa(lp4294
I1003
aI3773
aI7500
aa(lp4295
I1004
aI3773
aI7500
aa(lp4296
I1004
aI3773
aI7500
aa(lp4297
I1004
aI3773
aI7500
aa(lp4298
I1004
aI3773
aI7500
aa(lp4299
I1004
aI3773
aI7500
aa(lp4300
I1004
aI3773
aI7500
aa(lp4301
I1005
aI3773
aI7500
aa(lp4302
I1005
aI3773
aI7500
aa(lp4303
I1005
aI3773
aI7500
aa(lp4304
I1005
aI3773
aI7500
aa(lp4305
I1005
aI3773
aI7500
aa(lp4306
I1005
aI3773
aI7500
aa(lp4307
I1006
aI3773
aI7500
aa(lp4308
I1006
aI3773
aI7500
aa(lp4309
I1006
aI3773
aI7500
aa(lp4310
I1006
aI3773
aI7500
aa(lp4311
I1006
aI3773
aI7500
aa(lp4312
I1006
aI3773
aI7500
aa(lp4313
I1007
aI3773
aI7500
aa(lp4314
I1007
aI3773
aI7500
aa(lp4315
I1007
aI3773
aI7500
aa(lp4316
I1007
aI3773
aI7500
aa(lp4317
I1007
aI3773
aI7500
aa(lp4318
I1007
aI3773
aI7500
aa(lp4319
I1007
aI3773
aI7500
aa(lp4320
I1008
aI3773
aI7500
aa(lp4321
I1008
aI3773
aI7500
aa(lp4322
I1008
aI3773
aI7500
aa(lp4323
I1008
aI3773
aI7500
aa(lp4324
I1008
aI3773
aI7500
aa(lp4325
I1008
aI3773
aI7500
aa(lp4326
I1009
aI3773
aI7500
aa(lp4327
I1009
aI3773
aI7500
aa(lp4328
I1009
aI3773
aI7500
aa(lp4329
I1009
aI3773
aI7500
aa(lp4330
I1009
aI3773
aI7500
aa(lp4331
I1009
aI3773
aI7500
aa(lp4332
I1010
aI3773
aI7500
aa(lp4333
I1010
aI3773
aI7500
aa(lp4334
I1010
aI3773
aI7500
aa(lp4335
I1010
aI3773
aI7500
aa(lp4336
I1010
aI3773
aI7500
aa(lp4337
I1010
aI3773
aI7500
aa(lp4338
I1011
aI3773
aI7500
aa(lp4339
I1011
aI3773
aI7500
aa(lp4340
I1011
aI3773
aI7500
aa(lp4341
I1011
aI3773
aI7500
aa(lp4342
I1011
aI3773
aI7500
aa(lp4343
I1011
aI3773
aI7500
aa(lp4344
I1012
aI3773
aI7500
aa(lp4345
I1012
aI3773
aI7500
aa(lp4346
I1012
aI3773
aI7500
aa(lp4347
I1012
aI3773
aI7500
aa(lp4348
I1012
aI3773
aI7500
aa(lp4349
I1012
aI3773
aI7500
aa(lp4350
I1013
aI3773
aI7500
aa(lp4351
I1013
aI3773
aI7500
aa(lp4352
I1013
aI3773
aI7500
aa(lp4353
I1013
aI3773
aI7500
aa(lp4354
I1013
aI3773
aI7500
aa(lp4355
I1013
aI3773
aI7500
aa(lp4356
I1013
aI3773
aI7500
aa(lp4357
I1014
aI3773
aI7500
aa(lp4358
I1014
aI3773
aI7500
aa(lp4359
I1014
aI3773
aI7500
aa(lp4360
I1014
aI3773
aI7500
aa(lp4361
I1014
aI3773
aI7500
aa(lp4362
I1015
aI3773
aI7500
aa(lp4363
I1015
aI3773
aI7500
aa(lp4364
I1015
aI3773
aI7500
aa(lp4365
I1015
aI3773
aI7500
aa(lp4366
I1015
aI3773
aI7500
aa(lp4367
I1015
aI3773
aI7500
aa(lp4368
I1016
aI3773
aI7500
aa(lp4369
I1016
aI3773
aI7500
aa(lp4370
I1016
aI3773
aI7500
aa(lp4371
I1016
aI3773
aI7500
aa(lp4372
I1016
aI3773
aI7500
aa(lp4373
I1016
aI3773
aI7500
aa(lp4374
I1016
aI3773
aI7500
aa(lp4375
I1017
aI3773
aI7500
aa(lp4376
I1017
aI3773
aI7500
aa(lp4377
I1017
aI3773
aI7500
aa(lp4378
I1017
aI3773
aI7500
aa(lp4379
I1017
aI3773
aI7500
aa(lp4380
I1018
aI3773
aI7500
aa(lp4381
I1018
aI3773
aI7500
aa(lp4382
I1018
aI3773
aI7500
aa(lp4383
I1018
aI3773
aI7500
aa(lp4384
I1018
aI3773
aI7500
aa(lp4385
I1018
aI3773
aI7500
aa(lp4386
I1018
aI3773
aI7500
aa(lp4387
I1019
aI3773
aI7500
aa(lp4388
I1019
aI3773
aI7500
aa(lp4389
I1019
aI3773
aI7500
aa(lp4390
I1019
aI3773
aI7500
aa(lp4391
I1019
aI3773
aI7500
aa(lp4392
I1019
aI3773
aI7500
aa(lp4393
I1020
aI3773
aI7500
aa(lp4394
I1020
aI3773
aI7500
aa(lp4395
I1020
aI3773
aI7500
aa(lp4396
I1020
aI3773
aI7500
aa(lp4397
I1020
aI3773
aI7500
aa(lp4398
I1020
aI3773
aI7500
aa(lp4399
I1021
aI3773
aI7500
aa(lp4400
I1021
aI3773
aI7500
aa(lp4401
I1021
aI3773
aI7500
aa(lp4402
I1021
aI3773
aI7500
aa(lp4403
I1021
aI3773
aI7500
aa(lp4404
I1021
aI3773
aI7500
aa(lp4405
I1022
aI3773
aI7500
aa(lp4406
I1022
aI3773
aI7500
aa(lp4407
I1022
aI3773
aI7500
aa(lp4408
I1022
aI3773
aI7500
aa(lp4409
I1022
aI3773
aI7500
aa(lp4410
I1022
aI3773
aI7500
aa(lp4411
I1023
aI3773
aI7500
aa(lp4412
I1023
aI3773
aI7500
aa(lp4413
I1023
aI3773
aI7500
aa(lp4414
I1023
aI3773
aI7500
aa(lp4415
I1023
aI3773
aI7500
aa(lp4416
I1023
aI3773
aI7500
aa(lp4417
I1024
aI3773
aI7500
aa(lp4418
I1024
aI3773
aI7500
aa(lp4419
I1024
aI3773
aI7500
aa(lp4420
I1024
aI3773
aI7500
aa(lp4421
I1024
aI3773
aI7500
aa(lp4422
I1024
aI3773
aI7500
aa(lp4423
I1025
aI3773
aI7500
aa(lp4424
I1025
aI3773
aI7500
aa(lp4425
I1025
aI3773
aI7500
aa(lp4426
I1025
aI3773
aI7500
aa(lp4427
I1025
aI3773
aI7500
aa(lp4428
I1025
aI3773
aI7500
aa(lp4429
I1026
aI3773
aI7500
aa(lp4430
I1026
aI3773
aI7500
aa(lp4431
I1026
aI3773
aI7500
aa(lp4432
I1026
aI3773
aI7500
aa(lp4433
I1026
aI3773
aI7500
aa(lp4434
I1026
aI3773
aI7500
aa(lp4435
I1026
aI3773
aI7500
aa(lp4436
I1027
aI3773
aI7500
aa(lp4437
I1027
aI3773
aI7500
aa(lp4438
I1027
aI3773
aI7500
aa(lp4439
I1027
aI3773
aI7500
aa(lp4440
I1027
aI3773
aI7500
aa(lp4441
I1027
aI3773
aI7500
aa(lp4442
I1028
aI3773
aI7500
aa(lp4443
I1028
aI3773
aI7500
aa(lp4444
I1028
aI3773
aI7500
aa(lp4445
I1028
aI3773
aI7500
aa(lp4446
I1028
aI3773
aI7500
aa(lp4447
I1028
aI3773
aI7500
aa(lp4448
I1028
aI3773
aI7500
aa(lp4449
I1029
aI3773
aI7500
aa(lp4450
I1029
aI3773
aI7500
aa(lp4451
I1029
aI3773
aI7500
aa(lp4452
I1029
aI3773
aI7500
aa(lp4453
I1029
aI3773
aI7500
aa(lp4454
I1029
aI3773
aI7500
aa(lp4455
I1030
aI3773
aI7500
aa(lp4456
I1030
aI3773
aI7500
aa(lp4457
I1030
aI3773
aI7500
aa(lp4458
I1030
aI3773
aI7500
aa(lp4459
I1030
aI3773
aI7500
aa(lp4460
I1030
aI3773
aI7500
aa(lp4461
I1031
aI3773
aI7500
aa(lp4462
I1031
aI3773
aI7500
aa(lp4463
I1031
aI3773
aI7500
aa(lp4464
I1031
aI3773
aI7500
aa(lp4465
I1031
aI3773
aI7500
aa(lp4466
I1031
aI3773
aI7500
aa(lp4467
I1032
aI3773
aI7500
aa(lp4468
I1032
aI3773
aI7500
aa(lp4469
I1032
aI3773
aI7500
aa(lp4470
I1032
aI3773
aI7500
aa(lp4471
I1032
aI3773
aI7500
aa(lp4472
I1032
aI3773
aI7500
aa(lp4473
I1033
aI3773
aI7500
aa(lp4474
I1033
aI3773
aI7500
aa(lp4475
I1033
aI3773
aI7500
aa(lp4476
I1033
aI3773
aI7500
aa(lp4477
I1033
aI3773
aI7500
aa(lp4478
I1033
aI3773
aI7500
aa(lp4479
I1034
aI3773
aI7500
aa(lp4480
I1034
aI3773
aI7500
aa(lp4481
I1034
aI3773
aI7500
aa(lp4482
I1034
aI3773
aI7500
aa(lp4483
I1034
aI3773
aI7500
aa(lp4484
I1034
aI3773
aI7500
aa(lp4485
I1035
aI3773
aI7500
aa(lp4486
I1035
aI3773
aI7500
aa(lp4487
I1035
aI3773
aI7500
aa(lp4488
I1035
aI3773
aI7500
aa(lp4489
I1035
aI3773
aI7500
aa(lp4490
I1035
aI3773
aI7500
aa(lp4491
I1036
aI3773
aI7500
aa(lp4492
I1036
aI3773
aI7500
aa(lp4493
I1036
aI3773
aI7500
aa(lp4494
I1036
aI3773
aI7500
aa(lp4495
I1036
aI3773
aI7500
aa(lp4496
I1036
aI3773
aI7500
aa(lp4497
I1037
aI3773
aI7500
aa(lp4498
I1037
aI3773
aI7500
aa(lp4499
I1037
aI3773
aI7500
aa(lp4500
I1037
aI3773
aI7500
aa(lp4501
I1037
aI3773
aI7500
aa(lp4502
I1037
aI3773
aI7500
aa(lp4503
I1038
aI3773
aI7500
aa(lp4504
I1038
aI3773
aI7500
aa(lp4505
I1038
aI3773
aI7500
aa(lp4506
I1038
aI3773
aI7500
aa(lp4507
I1038
aI3773
aI7500
aa(lp4508
I1038
aI3773
aI7500
aa(lp4509
I1039
aI3773
aI7500
aa(lp4510
I1039
aI3773
aI7500
aa(lp4511
I1039
aI3773
aI7500
aa(lp4512
I1039
aI3773
aI7500
aa(lp4513
I1039
aI3773
aI7500
aa(lp4514
I1039
aI3773
aI7500
aa(lp4515
I1039
aI3773
aI7500
aa(lp4516
I1040
aI3773
aI7500
aa(lp4517
I1040
aI3773
aI7500
aa(lp4518
I1040
aI3773
aI7500
aa(lp4519
I1040
aI3773
aI7500
aa(lp4520
I1040
aI3773
aI7500
aa(lp4521
I1040
aI3773
aI7500
aa(lp4522
I1041
aI3773
aI7500
aa(lp4523
I1041
aI3773
aI7500
aa(lp4524
I1041
aI3773
aI7500
aa(lp4525
I1041
aI3773
aI7500
aa(lp4526
I1041
aI3773
aI7500
aa(lp4527
I1041
aI3773
aI7500
aa(lp4528
I1042
aI3773
aI7500
aa(lp4529
I1042
aI3773
aI7500
aa(lp4530
I1042
aI3773
aI7500
aa(lp4531
I1042
aI3773
aI7500
aa(lp4532
I1042
aI3773
aI7500
aa(lp4533
I1042
aI3773
aI7500
aa(lp4534
I1043
aI3773
aI7500
aa(lp4535
I1043
aI3773
aI7500
aa(lp4536
I1043
aI3773
aI7500
aa(lp4537
I1043
aI3773
aI7500
aa(lp4538
I1043
aI3773
aI7500
aa(lp4539
I1043
aI3773
aI7500
aa(lp4540
I1044
aI3773
aI7500
aa(lp4541
I1044
aI3773
aI7500
aa(lp4542
I1044
aI3773
aI7500
aa(lp4543
I1044
aI3773
aI7500
aa(lp4544
I1044
aI3773
aI7500
aa(lp4545
I1044
aI3773
aI7500
aa(lp4546
I1045
aI3773
aI7500
aa(lp4547
I1045
aI3773
aI7500
aa(lp4548
I1045
aI3773
aI7500
aa(lp4549
I1045
aI3773
aI7500
aa(lp4550
I1045
aI3773
aI7500
aa(lp4551
I1045
aI3773
aI7500
aa(lp4552
I1046
aI3773
aI7500
aa(lp4553
I1046
aI3773
aI7500
aa(lp4554
I1046
aI3773
aI7500
aa(lp4555
I1046
aI3773
aI7500
aa(lp4556
I1046
aI3773
aI7500
aa(lp4557
I1046
aI3773
aI7500
aa(lp4558
I1047
aI3773
aI7500
aa(lp4559
I1047
aI3773
aI7500
aa(lp4560
I1047
aI3773
aI7500
aa(lp4561
I1047
aI3773
aI7500
aa(lp4562
I1047
aI3773
aI7500
aa(lp4563
I1047
aI3773
aI7500
aa(lp4564
I1048
aI3773
aI7500
aa(lp4565
I1048
aI3773
aI7500
aa(lp4566
I1048
aI3773
aI7500
aa(lp4567
I1048
aI3773
aI7500
aa(lp4568
I1048
aI3773
aI7500
aa(lp4569
I1048
aI3773
aI7500
aa(lp4570
I1049
aI3773
aI7500
aa(lp4571
I1049
aI3773
aI7500
aa(lp4572
I1049
aI3773
aI7500
aa(lp4573
I1049
aI3773
aI7500
aa(lp4574
I1049
aI3773
aI7500
aa(lp4575
I1049
aI3773
aI7500
aa(lp4576
I1050
aI3773
aI7500
aa(lp4577
I1050
aI3773
aI7500
aa(lp4578
I1050
aI3773
aI7500
aa(lp4579
I1050
aI3773
aI7500
aa(lp4580
I1050
aI3773
aI7500
aa(lp4581
I1050
aI3773
aI7500
aa(lp4582
I1050
aI3773
aI7500
aa(lp4583
I1051
aI3773
aI7500
aa(lp4584
I1051
aI3773
aI7500
aa(lp4585
I1051
aI3773
aI7500
aa(lp4586
I1051
aI3773
aI7500
aa(lp4587
I1051
aI3773
aI7500
aa(lp4588
I1051
aI3773
aI7500
aa(lp4589
I1052
aI3773
aI7500
aa(lp4590
I1053
aI3785
aI7500
aa(lp4591
I1054
aI3785
aI7500
aa(lp4592
I1054
aI3785
aI7500
aa(lp4593
I1054
aI3785
aI7500
aa(lp4594
I1055
aI3798
aI7500
aa(lp4595
I1056
aI3798
aI7500
aa(lp4596
I1056
aI3798
aI7500
aa(lp4597
I1056
aI3798
aI7500
aa(lp4598
I1056
aI3798
aI7500
aa(lp4599
I1056
aI3798
aI7500
aa(lp4600
I1056
aI3798
aI7500
aa(lp4601
I1057
aI3798
aI7500
aa(lp4602
I1057
aI3798
aI7500
aa(lp4603
I1058
aI3815
aI7500
aa(lp4604
I1058
aI3815
aI7500
aa(lp4605
I1059
aI3815
aI7500
aa(lp4606
I1059
aI3815
aI7500
aa(lp4607
I1059
aI3815
aI7500
aa(lp4608
I1059
aI3815
aI7500
aa(lp4609
I1059
aI3815
aI7500
aa(lp4610
I1061
aI3827
aI7500
aa(lp4611
I1061
aI3827
aI7500
aa(lp4612
I1061
aI3827
aI7500
aa(lp4613
I1061
aI3827
aI7500
aa(lp4614
I1061
aI3827
aI7500
aa(lp4615
I1061
aI3827
aI7500
aa(lp4616
I1062
aI3827
aI7500
aa(lp4617
I1062
aI3827
aI7500
aa(lp4618
I1062
aI3827
aI7500
aa(lp4619
I1062
aI3827
aI7500
aa(lp4620
I1064
aI3853
aI7500
aa(lp4621
I1064
aI3853
aI7500
aa(lp4622
I1064
aI3853
aI7500
aa(lp4623
I1064
aI3853
aI7500
aa(lp4624
I1064
aI3853
aI7500
aa(lp4625
I1064
aI3853
aI7500
aa(lp4626
I1065
aI3853
aI7500
aa(lp4627
I1065
aI3853
aI7500
aa(lp4628
I1065
aI3853
aI7500
aa(lp4629
I1065
aI3853
aI7500
aa(lp4630
I1065
aI3853
aI7500
aa(lp4631
I1067
aI3874
aI7500
aa(lp4632
I1067
aI3874
aI7500
aa(lp4633
I1067
aI3874
aI7500
aa(lp4634
I1067
aI3874
aI7500
aa(lp4635
I1068
aI3874
aI7500
aa(lp4636
I1068
aI3874
aI7500
aa(lp4637
I1068
aI3874
aI7500
aa(lp4638
I1068
aI3874
aI7500
aa(lp4639
I1068
aI3882
aI7500
aa(lp4640
I1070
aI3892
aI7500
aa(lp4641
I1070
aI3892
aI7500
aa(lp4642
I1070
aI3892
aI7500
aa(lp4643
I1070
aI3892
aI7500
aa(lp4644
I1070
aI3892
aI7500
aa(lp4645
I1071
aI3892
aI7500
aa(lp4646
I1071
aI3903
aI7500
aa(lp4647
I1072
aI3918
aI7500
aa(lp4648
I1074
aI3919
aI7500
aa(lp4649
I1074
aI3919
aI7500
aa(lp4650
I1074
aI3919
aI7500
aa(lp4651
I1074
aI3919
aI7500
aa(lp4652
I1074
aI3919
aI7500
aa(lp4653
I1075
aI3919
aI7500
aa(lp4654
I1075
aI3919
aI7500
aa(lp4655
I1075
aI3919
aI7500
aa(lp4656
I1075
aI3919
aI7500
aa(lp4657
I1075
aI3919
aI7500
aa(lp4658
I1076
aI3919
aI7500
aa(lp4659
I1076
aI3919
aI7500
aa(lp4660
I1076
aI3919
aI7500
aa(lp4661
I1076
aI3919
aI7500
aa(lp4662
I1076
aI3919
aI7500
aa(lp4663
I1076
aI3919
aI7500
aa(lp4664
I1077
aI3919
aI7500
aa(lp4665
I1077
aI3919
aI7500
aa(lp4666
I1077
aI3919
aI7500
aa(lp4667
I1077
aI3919
aI7500
aa(lp4668
I1077
aI3919
aI7500
aa(lp4669
I1077
aI3919
aI7500
aa(lp4670
I1078
aI3919
aI7500
aa(lp4671
I1078
aI3919
aI7500
aa(lp4672
I1078
aI3919
aI7500
aa(lp4673
I1078
aI3919
aI7500
aa(lp4674
I1078
aI3919
aI7500
aa(lp4675
I1078
aI3919
aI7500
aa(lp4676
I1079
aI3919
aI7500
aa(lp4677
I1079
aI3919
aI7500
aa(lp4678
I1079
aI3919
aI7500
aa(lp4679
I1079
aI3919
aI7500
aa(lp4680
I1079
aI3919
aI7500
aa(lp4681
I1079
aI3919
aI7500
aa(lp4682
I1080
aI3919
aI7500
aa(lp4683
I1080
aI3919
aI7500
aa(lp4684
I1080
aI3919
aI7500
aa(lp4685
I1080
aI3919
aI7500
aa(lp4686
I1080
aI3919
aI7500
aa(lp4687
I1081
aI3919
aI7500
aa(lp4688
I1081
aI3919
aI7500
aa(lp4689
I1081
aI3919
aI7500
aa(lp4690
I1081
aI3919
aI7500
aa(lp4691
I1081
aI3919
aI7500
aa(lp4692
I1081
aI3919
aI7500
aa(lp4693
I1082
aI3919
aI7500
aa(lp4694
I1082
aI3919
aI7500
aa(lp4695
I1082
aI3919
aI7500
aa(lp4696
I1082
aI3919
aI7500
aa(lp4697
I1082
aI3919
aI7500
aa(lp4698
I1082
aI3919
aI7500
aa(lp4699
I1083
aI3919
aI7500
aa(lp4700
I1083
aI3919
aI7500
aa(lp4701
I1083
aI3919
aI7500
aa(lp4702
I1083
aI3919
aI7500
aa(lp4703
I1083
aI3919
aI7500
aa(lp4704
I1085
aI3930
aI7500
aa(lp4705
I1085
aI3930
aI7500
aa(lp4706
I1085
aI3930
aI7500
aa(lp4707
I1085
aI3930
aI7500
aa(lp4708
I1085
aI3930
aI7500
aa(lp4709
I1086
aI3930
aI7500
aa(lp4710
I1086
aI3943
aI7500
aa(lp4711
I1087
aI3947
aI7500
aa(lp4712
I1087
aI3947
aI7500
aa(lp4713
I1087
aI3950
aI7500
aa(lp4714
I1089
aI3961
aI7500
aa(lp4715
I1089
aI3969
aI7500
aa(lp4716
I1091
aI3983
aI7500
aa(lp4717
I1092
aI4002
aI7500
aa(lp4718
I1094
aI4006
aI7500
aa(lp4719
I1094
aI4006
aI7500
aa(lp4720
I1094
aI4006
aI7500
aa(lp4721
I1094
aI4006
aI7500
aa(lp4722
I1095
aI4012
aI7500
aa(lp4723
I1096
aI4020
aI7500
aa(lp4724
I1096
aI4020
aI7500
aa(lp4725
I1097
aI4020
aI7500
aa(lp4726
I1097
aI4020
aI7500
aa(lp4727
I1097
aI4027
aI7500
aa(lp4728
I1099
aI4029
aI7500
aa(lp4729
I1099
aI4029
aI7500
aa(lp4730
I1099
aI4029
aI7500
aa(lp4731
I1099
aI4029
aI7500
aa(lp4732
I1099
aI4029
aI7500
aa(lp4733
I1100
aI4029
aI7500
aa(lp4734
I1100
aI4029
aI7500
aa(lp4735
I1100
aI4029
aI7500
aa(lp4736
I1100
aI4029
aI7500
aa(lp4737
I1100
aI4032
aI7500
aa(lp4738
I1102
aI4033
aI7500
aa(lp4739
I1102
aI4033
aI7500
aa(lp4740
I1102
aI4033
aI7500
aa(lp4741
I1102
aI4033
aI7500
aa(lp4742
I1102
aI4033
aI7500
aa(lp4743
I1102
aI4033
aI7500
aa(lp4744
I1103
aI4040
aI7500
aa(lp4745
I1105
aI4045
aI7500
aa(lp4746
I1105
aI4045
aI7500
aa(lp4747
I1106
aI4045
aI7500
aa(lp4748
I1106
aI4045
aI7500
aa(lp4749
I1106
aI4046
aI7500
aa(lp4750
I1108
aI4054
aI7500
aa(lp4751
I1108
aI4054
aI7500
aa(lp4752
I1110
aI4057
aI7500
aa(lp4753
I1110
aI4057
aI7500
aa(lp4754
I1110
aI4057
aI7500
aa(lp4755
I1110
aI4057
aI7500
aa(lp4756
I1110
aI4057
aI7500
aa(lp4757
I1110
aI4057
aI7500
aa(lp4758
I1111
aI4057
aI7500
aa(lp4759
I1112
aI4059
aI7500
aa(lp4760
I1112
aI4059
aI7500
aa(lp4761
I1112
aI4059
aI7500
aa(lp4762
I1112
aI4059
aI7500
aa(lp4763
I1113
aI4059
aI7500
aa(lp4764
I1113
aI4059
aI7500
aa(lp4765
I1113
aI4059
aI7500
aa(lp4766
I1113
aI4059
aI7500
aa(lp4767
I1113
aI4059
aI7500
aa(lp4768
I1113
aI4059
aI7500
aa(lp4769
I1114
aI4059
aI7500
aa(lp4770
I1114
aI4064
aI7500
aa(lp4771
I1115
aI4064
aI7500
aa(lp4772
I1115
aI4064
aI7500
aa(lp4773
I1115
aI4064
aI7500
aa(lp4774
I1115
aI4064
aI7500
aa(lp4775
I1116
aI4064
aI7500
aa(lp4776
I1116
aI4064
aI7500
aa(lp4777
I1116
aI4064
aI7500
aa(lp4778
I1116
aI4064
aI7500
aa(lp4779
I1116
aI4064
aI7500
aa(lp4780
I1116
aI4064
aI7500
aa(lp4781
I1116
aI4064
aI7500
aa(lp4782
I1117
aI4064
aI7500
aa(lp4783
I1117
aI4064
aI7500
aa(lp4784
I1117
aI4064
aI7500
aa(lp4785
I1117
aI4064
aI7500
aa(lp4786
I1117
aI4064
aI7500
aa(lp4787
I1117
aI4064
aI7500
aa(lp4788
I1118
aI4064
aI7500
aa(lp4789
I1118
aI4064
aI7500
aa(lp4790
I1118
aI4064
aI7500
aa(lp4791
I1118
aI4064
aI7500
aa(lp4792
I1118
aI4064
aI7500
aa(lp4793
I1118
aI4064
aI7500
aa(lp4794
I1119
aI4064
aI7500
aa(lp4795
I1119
aI4064
aI7500
aa(lp4796
I1119
aI4064
aI7500
aa(lp4797
I1119
aI4064
aI7500
aa(lp4798
I1119
aI4064
aI7500
aa(lp4799
I1121
aI4065
aI7500
aa(lp4800
I1121
aI4065
aI7500
aa(lp4801
I1121
aI4065
aI7500
aa(lp4802
I1121
aI4065
aI7500
aa(lp4803
I1121
aI4065
aI7500
aa(lp4804
I1122
aI4065
aI7500
aa(lp4805
I1122
aI4065
aI7500
aa(lp4806
I1122
aI4065
aI7500
aa(lp4807
I1122
aI4065
aI7500
aa(lp4808
I1122
aI4065
aI7500
aa(lp4809
I1122
aI4065
aI7500
aa(lp4810
I1123
aI4065
aI7500
aa(lp4811
I1123
aI4065
aI7500
aa(lp4812
I1123
aI4065
aI7500
aa(lp4813
I1123
aI4065
aI7500
aa(lp4814
I1123
aI4065
aI7500
aa(lp4815
I1123
aI4065
aI7500
aa(lp4816
I1124
aI4065
aI7500
aa(lp4817
I1124
aI4065
aI7500
aa(lp4818
I1124
aI4065
aI7500
aa(lp4819
I1124
aI4065
aI7500
aa(lp4820
I1124
aI4065
aI7500
aa(lp4821
I1124
aI4065
aI7500
aa(lp4822
I1124
aI4065
aI7500
aa(lp4823
I1125
aI4065
aI7500
aa(lp4824
I1125
aI4065
aI7500
aa(lp4825
I1125
aI4065
aI7500
aa(lp4826
I1125
aI4065
aI7500
aa(lp4827
I1127
aI4067
aI7500
aa(lp4828
I1127
aI4067
aI7500
aa(lp4829
I1127
aI4067
aI7500
aa(lp4830
I1127
aI4067
aI7500
aa(lp4831
I1127
aI4067
aI7500
aa(lp4832
I1129
aI4071
aI7500
aa(lp4833
I1130
aI4078
aI7500
aa(lp4834
I1131
aI4078
aI7500
aa(lp4835
I1131
aI4080
aI7500
aa(lp4836
I1132
aI4088
aI7500
aa(lp4837
I1133
aI4089
aI7500
aa(lp4838
I1134
aI4097
aI7500
aa(lp4839
I1135
aI4097
aI7500
aa(lp4840
I1135
aI4097
aI7500
aa(lp4841
I1135
aI4097
aI7500
aa(lp4842
I1135
aI4097
aI7500
aa(lp4843
I1135
aI4097
aI7500
aa(lp4844
I1135
aI4097
aI7500
aa(lp4845
I1136
aI4097
aI7500
aa(lp4846
I1136
aI4097
aI7500
aa(lp4847
I1136
aI4097
aI7500
aa(lp4848
I1136
aI4097
aI7500
aa(lp4849
I1136
aI4097
aI7500
aa(lp4850
I1136
aI4097
aI7500
aa(lp4851
I1137
aI4097
aI7500
aa(lp4852
I1137
aI4097
aI7500
aa(lp4853
I1137
aI4097
aI7500
aa(lp4854
I1137
aI4097
aI7500
aa(lp4855
I1137
aI4097
aI7500
aa(lp4856
I1137
aI4097
aI7500
aa(lp4857
I1137
aI4097
aI7500
aa(lp4858
I1138
aI4097
aI7500
aa(lp4859
I1138
aI4097
aI7500
aa(lp4860
I1138
aI4097
aI7500
aa(lp4861
I1138
aI4097
aI7500
aa(lp4862
I1138
aI4097
aI7500
aa(lp4863
I1138
aI4101
aI7500
aa(lp4864
I1140
aI4102
aI7500
aa(lp4865
I1140
aI4102
aI7500
aa(lp4866
I1140
aI4102
aI7500
aa(lp4867
I1140
aI4102
aI7500
aa(lp4868
I1140
aI4102
aI7500
aa(lp4869
I1142
aI4107
aI7500
aa(lp4870
I1142
aI4107
aI7500
aa(lp4871
I1142
aI4107
aI7500
aa(lp4872
I1142
aI4107
aI7500
aa(lp4873
I1144
aI4119
aI7500
aa(lp4874
I1146
aI4125
aI7500
aa(lp4875
I1148
aI4136
aI7500
aa(lp4876
I1148
aI4136
aI7500
aa(lp4877
I1148
aI4136
aI7500
aa(lp4878
I1148
aI4136
aI7500
aa(lp4879
I1148
aI4136
aI7500
aa(lp4880
I1149
aI4138
aI7500
aa(lp4881
I1150
aI4148
aI7500
aa(lp4882
I1152
aI4159
aI7500
aa(lp4883
I1154
aI4161
aI7500
aa(lp4884
I1156
aI4166
aI7500
aa(lp4885
I1156
aI4166
aI7500
aa(lp4886
I1158
aI4171
aI7500
aa(lp4887
I1160
aI4173
aI7500
aa(lp4888
I1160
aI4173
aI7500
aa(lp4889
I1160
aI4173
aI7500
aa(lp4890
I1162
aI4176
aI7500
aa(lp4891
I1163
aI4176
aI7500
aa(lp4892
I1164
aI4176
aI7500
aa(lp4893
I1164
aI4176
aI7500
aa(lp4894
I1164
aI4176
aI7500
aa(lp4895
I1166
aI4176
aI7500
aa(lp4896
I1168
aI4178
aI7500
aa(lp4897
I1168
aI4178
aI7500
aa(lp4898
I1168
aI4178
aI7500
aa(lp4899
I1168
aI4178
aI7500
aa(lp4900
I1168
aI4178
aI7500
aa(lp4901
I1168
aI4178
aI7500
aa(lp4902
I1169
aI4178
aI7500
aa(lp4903
I1169
aI4178
aI7500
aa(lp4904
I1169
aI4178
aI7500
aa(lp4905
I1169
aI4178
aI7500
aa(lp4906
I1171
aI4178
aI7500
aa(lp4907
I1171
aI4178
aI7500
aa(lp4908
I1171
aI4178
aI7500
aa(lp4909
I1171
aI4178
aI7500
aa(lp4910
I1171
aI4178
aI7500
aa(lp4911
I1171
aI4178
aI7500
aa(lp4912
I1172
aI4178
aI7500
aa(lp4913
I1172
aI4178
aI7500
aa(lp4914
I1172
aI4178
aI7500
aa(lp4915
I1172
aI4178
aI7500
aa(lp4916
I1172
aI4178
aI7500
aa(lp4917
I1172
aI4178
aI7500
aa(lp4918
I1173
aI4178
aI7500
aa(lp4919
I1173
aI4178
aI7500
aa(lp4920
I1173
aI4178
aI7500
aa(lp4921
I1173
aI4178
aI7500
aa(lp4922
I1173
aI4178
aI7500
aa(lp4923
I1173
aI4178
aI7500
aa(lp4924
I1173
aI4178
aI7500
aa(lp4925
I1174
aI4178
aI7500
aa(lp4926
I1174
aI4178
aI7500
aa(lp4927
I1174
aI4178
aI7500
aa(lp4928
I1174
aI4178
aI7500
aa(lp4929
I1174
aI4178
aI7500
aa(lp4930
I1174
aI4178
aI7500
aa(lp4931
I1175
aI4178
aI7500
aa(lp4932
I1175
aI4178
aI7500
aa(lp4933
I1175
aI4178
aI7500
aa(lp4934
I1175
aI4178
aI7500
aa(lp4935
I1175
aI4178
aI7500
aa(lp4936
I1175
aI4178
aI7500
aa(lp4937
I1176
aI4178
aI7500
aa(lp4938
I1176
aI4178
aI7500
aa(lp4939
I1177
aI4178
aI7500
aa(lp4940
I1177
aI4178
aI7500
aa(lp4941
I1179
aI4178
aI7500
aa(lp4942
I1179
aI4178
aI7500
aa(lp4943
I1179
aI4178
aI7500
aa(lp4944
I1179
aI4178
aI7500
aa(lp4945
I1179
aI4178
aI7500
aa(lp4946
I1179
aI4178
aI7500
aa(lp4947
I1180
aI4178
aI7500
aa(lp4948
I1180
aI4178
aI7500
aa(lp4949
I1180
aI4178
aI7500
aa(lp4950
I1180
aI4178
aI7500
aa(lp4951
I1182
aI4180
aI7500
aa(lp4952
I1182
aI4180
aI7500
aa(lp4953
I1182
aI4180
aI7500
aa(lp4954
I1182
aI4180
aI7500
aa(lp4955
I1182
aI4180
aI7500
aa(lp4956
I1183
aI4180
aI7500
aa(lp4957
I1183
aI4180
aI7500
aa(lp4958
I1183
aI4180
aI7500
aa(lp4959
I1183
aI4180
aI7500
aa(lp4960
I1183
aI4180
aI7500
aa(lp4961
I1183
aI4180
aI7500
aa(lp4962
I1184
aI4180
aI7500
aa(lp4963
I1184
aI4180
aI7500
aa(lp4964
I1184
aI4180
aI7500
aa(lp4965
I1184
aI4180
aI7500
aa(lp4966
I1184
aI4180
aI7500
aa(lp4967
I1184
aI4180
aI7500
aa(lp4968
I1184
aI4180
aI7500
aa(lp4969
I1186
aI4180
aI7500
aa(lp4970
I1186
aI4180
aI7500
aa(lp4971
I1186
aI4180
aI7500
aa(lp4972
I1186
aI4180
aI7500
aa(lp4973
I1187
aI4180
aI7500
aa(lp4974
I1187
aI4180
aI7500
aa(lp4975
I1187
aI4180
aI7500
aa(lp4976
I1187
aI4180
aI7500
aa(lp4977
I1187
aI4180
aI7500
aa(lp4978
I1187
aI4180
aI7500
aa(lp4979
I1188
aI4180
aI7500
aa(lp4980
I1188
aI4180
aI7500
aa(lp4981
I1188
aI4180
aI7500
aa(lp4982
I1188
aI4180
aI7500
aa(lp4983
I1188
aI4180
aI7500
aa(lp4984
I1188
aI4180
aI7500
aa(lp4985
I1189
aI4180
aI7500
aa(lp4986
I1189
aI4180
aI7500
aa(lp4987
I1189
aI4180
aI7500
aa(lp4988
I1189
aI4180
aI7500
aa(lp4989
I1189
aI4180
aI7500
aa(lp4990
I1189
aI4180
aI7500
aa(lp4991
I1190
aI4180
aI7500
aa(lp4992
I1191
aI4180
aI7500
aa(lp4993
I1191
aI4180
aI7500
aa(lp4994
I1191
aI4180
aI7500
aa(lp4995
I1191
aI4180
aI7500
aa(lp4996
I1191
aI4180
aI7500
aa(lp4997
I1191
aI4180
aI7500
aa(lp4998
I1192
aI4180
aI7500
aa(lp4999
I1192
aI4180
aI7500
aa(lp5000
I1192
aI4180
aI7500
aa(lp5001
I1192
aI4180
aI7500
aa(lp5002
I1192
aI4180
aI7500
aa(lp5003
I1193
aI4180
aI7500
aa(lp5004
I1193
aI4180
aI7500
aa(lp5005
I1193
aI4180
aI7500
aa(lp5006
I1193
aI4180
aI7500
aa(lp5007
I1193
aI4180
aI7500
aa(lp5008
I1193
aI4180
aI7500
aa(lp5009
I1194
aI4180
aI7500
aa(lp5010
I1194
aI4180
aI7500
aa(lp5011
I1194
aI4180
aI7500
aa(lp5012
I1194
aI4180
aI7500
aa(lp5013
I1194
aI4180
aI7500
aa(lp5014
I1194
aI4180
aI7500
aa(lp5015
I1194
aI4180
aI7500
aa(lp5016
I1195
aI4180
aI7500
aa(lp5017
I1195
aI4180
aI7500
aa(lp5018
I1195
aI4180
aI7500
aa(lp5019
I1195
aI4180
aI7500
aa(lp5020
I1195
aI4180
aI7500
aa(lp5021
I1195
aI4180
aI7500
aa(lp5022
I1196
aI4180
aI7500
aa(lp5023
I1196
aI4180
aI7500
aa(lp5024
I1196
aI4180
aI7500
aa(lp5025
I1196
aI4180
aI7500
aa(lp5026
I1196
aI4180
aI7500
aa(lp5027
I1196
aI4180
aI7500
aa(lp5028
I1197
aI4180
aI7500
aa(lp5029
I1197
aI4180
aI7500
aa(lp5030
I1197
aI4180
aI7500
aa(lp5031
I1197
aI4180
aI7500
aa(lp5032
I1197
aI4180
aI7500
aa(lp5033
I1198
aI4180
aI7500
aa(lp5034
I1198
aI4180
aI7500
aa(lp5035
I1198
aI4180
aI7500
aa(lp5036
I1198
aI4180
aI7500
aa(lp5037
I1198
aI4180
aI7500
aa(lp5038
I1198
aI4180
aI7500
aa(lp5039
I1199
aI4180
aI7500
aa(lp5040
I1199
aI4180
aI7500
aa(lp5041
I1199
aI4180
aI7500
aa(lp5042
I1199
aI4180
aI7500
aa(lp5043
I1199
aI4180
aI7500
aa(lp5044
I1200
aI4180
aI7500
aa(lp5045
I1200
aI4180
aI7500
aa(lp5046
I1200
aI4180
aI7500
aa(lp5047
I1200
aI4180
aI7500
aa(lp5048
I1200
aI4180
aI7500
aa(lp5049
I1200
aI4180
aI7500
aa(lp5050
I1201
aI4180
aI7500
aa(lp5051
I1201
aI4180
aI7500
aa(lp5052
I1201
aI4180
aI7500
aa(lp5053
I1201
aI4180
aI7500
aa(lp5054
I1201
aI4180
aI7500
aa(lp5055
I1202
aI4180
aI7500
aa(lp5056
I1202
aI4180
aI7500
aa(lp5057
I1202
aI4180
aI7500
aa(lp5058
I1202
aI4180
aI7500
aa(lp5059
I1202
aI4180
aI7500
aa(lp5060
I1202
aI4180
aI7500
aa(lp5061
I1203
aI4180
aI7500
aa(lp5062
I1203
aI4180
aI7500
aa(lp5063
I1203
aI4180
aI7500
aa(lp5064
I1203
aI4180
aI7500
aa(lp5065
I1203
aI4180
aI7500
aa(lp5066
I1203
aI4180
aI7500
aa(lp5067
I1204
aI4180
aI7500
aa(lp5068
I1204
aI4180
aI7500
aa(lp5069
I1204
aI4180
aI7500
aa(lp5070
I1204
aI4180
aI7500
aa(lp5071
I1204
aI4180
aI7500
aa(lp5072
I1204
aI4180
aI7500
aa(lp5073
I1205
aI4180
aI7500
aa.